
core_main.elf:     file format elf32-littleriscv


Disassembly of section .text:

00000000 <get_cycle_value>:
       0:	c0002573          	rdcycle	a0
       4:	c80025f3          	rdcycleh	a1
       8:	8082                	ret

0000000a <get_mepc>:
       a:	34102573          	csrr	a0,mepc
       e:	8082                	ret

00000010 <get_mcause>:
      10:	34202573          	csrr	a0,mcause
      14:	8082                	ret

00000016 <get_mtval>:
      16:	34302573          	csrr	a0,mtval
      1a:	8082                	ret

0000001c <sim_halt>:
      1c:	002007b7          	lui	a5,0x200
      20:	4705                	li	a4,1
      22:	c798                	sw	a4,8(a5)
      24:	8082                	ret

00000026 <simple_exc_handler>:
      26:	1141                	add	sp,sp,-16
      28:	00002517          	auipc	a0,0x2
      2c:	fe050513          	add	a0,a0,-32 # 2008 <_min_stack+0x8>
      30:	c606                	sw	ra,12(sp)
      32:	22cd                	jal	214 <put_str>
      34:	00002517          	auipc	a0,0x2
      38:	fe450513          	add	a0,a0,-28 # 2018 <_min_stack+0x18>
      3c:	2ae1                	jal	214 <put_str>
      3e:	00002517          	auipc	a0,0x2
      42:	fea50513          	add	a0,a0,-22 # 2028 <_min_stack+0x28>
      46:	22f9                	jal	214 <put_str>
      48:	34102573          	csrr	a0,mepc
      4c:	22c5                	jal	22c <put_hex>
      4e:	00002517          	auipc	a0,0x2
      52:	fe650513          	add	a0,a0,-26 # 2034 <_min_stack+0x34>
      56:	2a7d                	jal	214 <put_str>
      58:	34202573          	csrr	a0,mcause
      5c:	2ac1                	jal	22c <put_hex>
      5e:	00002517          	auipc	a0,0x2
      62:	fe250513          	add	a0,a0,-30 # 2040 <_min_stack+0x40>
      66:	227d                	jal	214 <put_str>
      68:	34302573          	csrr	a0,mtval
      6c:	22c1                	jal	22c <put_hex>
      6e:	4529                	li	a0,10
      70:	2a71                	jal	20c <put_char>
      72:	002007b7          	lui	a5,0x200
      76:	4705                	li	a4,1
      78:	c798                	sw	a4,8(a5)
      7a:	a001                	j	7a <simple_exc_handler+0x54>

0000007c <timer_read>:
      7c:	020047b7          	lui	a5,0x2004
      80:	4388                	lw	a0,0(a5)
      82:	43cc                	lw	a1,4(a5)
      84:	8082                	ret

00000086 <timecmp_update>:
      86:	020047b7          	lui	a5,0x2004
      8a:	c388                	sw	a0,0(a5)
      8c:	c3cc                	sw	a1,4(a5)
      8e:	8082                	ret

00000090 <timer_enable>:
      90:	00002817          	auipc	a6,0x2
      94:	53880813          	add	a6,a6,1336 # 25c8 <time_increment>
      98:	00a82023          	sw	a0,0(a6)
      9c:	02004737          	lui	a4,0x2004
      a0:	00002797          	auipc	a5,0x2
      a4:	52c7a023          	sw	a2,1312(a5) # 25c0 <sgfTimerCallback>
      a8:	431c                	lw	a5,0(a4)
      aa:	4354                	lw	a3,4(a4)
      ac:	00b82223          	sw	a1,4(a6)
      b0:	953e                	add	a0,a0,a5
      b2:	00f537b3          	sltu	a5,a0,a5
      b6:	96ae                	add	a3,a3,a1
      b8:	97b6                	add	a5,a5,a3
      ba:	c35c                	sw	a5,4(a4)
      bc:	c308                	sw	a0,0(a4)
      be:	08000793          	li	a5,128
      c2:	3047a073          	csrs	mie,a5
      c6:	47a1                	li	a5,8
      c8:	3007a073          	csrs	mstatus,a5
      cc:	8082                	ret

000000ce <simple_timer_handler>:
      ce:	7129                	add	sp,sp,-320
      d0:	12112e23          	sw	ra,316(sp)
      d4:	12512c23          	sw	t0,312(sp)
      d8:	12612a23          	sw	t1,308(sp)
      dc:	12712823          	sw	t2,304(sp)
      e0:	12a12623          	sw	a0,300(sp)
      e4:	12b12423          	sw	a1,296(sp)
      e8:	12c12223          	sw	a2,292(sp)
      ec:	12d12023          	sw	a3,288(sp)
      f0:	10e12e23          	sw	a4,284(sp)
      f4:	10f12c23          	sw	a5,280(sp)
      f8:	11012a23          	sw	a6,276(sp)
      fc:	11112823          	sw	a7,272(sp)
     100:	11c12623          	sw	t3,268(sp)
     104:	11d12423          	sw	t4,264(sp)
     108:	11e12223          	sw	t5,260(sp)
     10c:	11f12023          	sw	t6,256(sp)
     110:	bd82                	fsd	ft0,248(sp)
     112:	b986                	fsd	ft1,240(sp)
     114:	b58a                	fsd	ft2,232(sp)
     116:	b18e                	fsd	ft3,224(sp)
     118:	ad92                	fsd	ft4,216(sp)
     11a:	a996                	fsd	ft5,208(sp)
     11c:	a59a                	fsd	ft6,200(sp)
     11e:	a19e                	fsd	ft7,192(sp)
     120:	bd22                	fsd	fs0,184(sp)
     122:	b926                	fsd	fs1,176(sp)
     124:	b52a                	fsd	fa0,168(sp)
     126:	b12e                	fsd	fa1,160(sp)
     128:	ad32                	fsd	fa2,152(sp)
     12a:	a936                	fsd	fa3,144(sp)
     12c:	a53a                	fsd	fa4,136(sp)
     12e:	a13e                	fsd	fa5,128(sp)
     130:	02004737          	lui	a4,0x2004
     134:	00002617          	auipc	a2,0x2
     138:	49460613          	add	a2,a2,1172 # 25c8 <time_increment>
     13c:	bcc2                	fsd	fa6,120(sp)
     13e:	421c                	lw	a5,0(a2)
     140:	4314                	lw	a3,0(a4)
     142:	434c                	lw	a1,4(a4)
     144:	4250                	lw	a2,4(a2)
     146:	96be                	add	a3,a3,a5
     148:	00f6b7b3          	sltu	a5,a3,a5
     14c:	962e                	add	a2,a2,a1
     14e:	b8c6                	fsd	fa7,112(sp)
     150:	b4ca                	fsd	fs2,104(sp)
     152:	b0ce                	fsd	fs3,96(sp)
     154:	acd2                	fsd	fs4,88(sp)
     156:	a8d6                	fsd	fs5,80(sp)
     158:	a4da                	fsd	fs6,72(sp)
     15a:	a0de                	fsd	fs7,64(sp)
     15c:	bc62                	fsd	fs8,56(sp)
     15e:	b866                	fsd	fs9,48(sp)
     160:	b46a                	fsd	fs10,40(sp)
     162:	b06e                	fsd	fs11,32(sp)
     164:	ac72                	fsd	ft8,24(sp)
     166:	a876                	fsd	ft9,16(sp)
     168:	a47a                	fsd	ft10,8(sp)
     16a:	a07e                	fsd	ft11,0(sp)
     16c:	97b2                	add	a5,a5,a2
     16e:	c314                	sw	a3,0(a4)
     170:	c35c                	sw	a5,4(a4)
     172:	00002797          	auipc	a5,0x2
     176:	44e7a783          	lw	a5,1102(a5) # 25c0 <sgfTimerCallback>
     17a:	9782                	jalr	a5
     17c:	13c12083          	lw	ra,316(sp)
     180:	13812283          	lw	t0,312(sp)
     184:	13412303          	lw	t1,308(sp)
     188:	13012383          	lw	t2,304(sp)
     18c:	12c12503          	lw	a0,300(sp)
     190:	12812583          	lw	a1,296(sp)
     194:	12412603          	lw	a2,292(sp)
     198:	12012683          	lw	a3,288(sp)
     19c:	11c12703          	lw	a4,284(sp)
     1a0:	11812783          	lw	a5,280(sp)
     1a4:	11412803          	lw	a6,276(sp)
     1a8:	11012883          	lw	a7,272(sp)
     1ac:	10c12e03          	lw	t3,268(sp)
     1b0:	10812e83          	lw	t4,264(sp)
     1b4:	10412f03          	lw	t5,260(sp)
     1b8:	10012f83          	lw	t6,256(sp)
     1bc:	306e                	fld	ft0,248(sp)
     1be:	30ce                	fld	ft1,240(sp)
     1c0:	312e                	fld	ft2,232(sp)
     1c2:	318e                	fld	ft3,224(sp)
     1c4:	226e                	fld	ft4,216(sp)
     1c6:	22ce                	fld	ft5,208(sp)
     1c8:	232e                	fld	ft6,200(sp)
     1ca:	238e                	fld	ft7,192(sp)
     1cc:	346a                	fld	fs0,184(sp)
     1ce:	34ca                	fld	fs1,176(sp)
     1d0:	352a                	fld	fa0,168(sp)
     1d2:	358a                	fld	fa1,160(sp)
     1d4:	266a                	fld	fa2,152(sp)
     1d6:	26ca                	fld	fa3,144(sp)
     1d8:	272a                	fld	fa4,136(sp)
     1da:	278a                	fld	fa5,128(sp)
     1dc:	3866                	fld	fa6,120(sp)
     1de:	38c6                	fld	fa7,112(sp)
     1e0:	3926                	fld	fs2,104(sp)
     1e2:	3986                	fld	fs3,96(sp)
     1e4:	2a66                	fld	fs4,88(sp)
     1e6:	2ac6                	fld	fs5,80(sp)
     1e8:	2b26                	fld	fs6,72(sp)
     1ea:	2b86                	fld	fs7,64(sp)
     1ec:	3c62                	fld	fs8,56(sp)
     1ee:	3cc2                	fld	fs9,48(sp)
     1f0:	3d22                	fld	fs10,40(sp)
     1f2:	3d82                	fld	fs11,32(sp)
     1f4:	2e62                	fld	ft8,24(sp)
     1f6:	2ec2                	fld	ft9,16(sp)
     1f8:	2f22                	fld	ft10,8(sp)
     1fa:	2f82                	fld	ft11,0(sp)
     1fc:	6131                	add	sp,sp,320
     1fe:	30200073          	mret

00000202 <timer_disable>:
     202:	08000793          	li	a5,128
     206:	3047b073          	csrc	mie,a5
     20a:	8082                	ret

0000020c <put_char>:
     20c:	00200737          	lui	a4,0x200
     210:	c348                	sw	a0,4(a4)
     212:	8082                	ret

00000214 <put_str>:
     214:	00054783          	lbu	a5,0(a0)
     218:	cb81                	beqz	a5,228 <put_str+0x14>
     21a:	00200737          	lui	a4,0x200
     21e:	0505                	add	a0,a0,1
     220:	c35c                	sw	a5,4(a4)
     222:	00054783          	lbu	a5,0(a0)
     226:	ffe5                	bnez	a5,21e <put_str+0xa>
     228:	4501                	li	a0,0
     22a:	8082                	ret

0000022c <put_hex>:
     22c:	46a1                	li	a3,8
     22e:	4825                	li	a6,9
     230:	002005b7          	lui	a1,0x200
     234:	a029                	j	23e <put_hex+0x12>
     236:	c1d0                	sw	a2,4(a1)
     238:	16fd                	add	a3,a3,-1
     23a:	0512                	sll	a0,a0,0x4
     23c:	ce89                	beqz	a3,256 <put_hex+0x2a>
     23e:	01c55713          	srl	a4,a0,0x1c
     242:	03070613          	add	a2,a4,48 # 200030 <_stack_start+0x100030>
     246:	03770793          	add	a5,a4,55
     24a:	fee876e3          	bgeu	a6,a4,236 <put_hex+0xa>
     24e:	c1dc                	sw	a5,4(a1)
     250:	16fd                	add	a3,a3,-1
     252:	0512                	sll	a0,a0,0x4
     254:	f6ed                	bnez	a3,23e <put_hex+0x12>
     256:	8082                	ret

00000258 <printf>:
     258:	7159                	add	sp,sp,-112
     25a:	c6a2                	sw	s0,76(sp)
     25c:	c4a6                	sw	s1,72(sp)
     25e:	c2ca                	sw	s2,68(sp)
     260:	c0ce                	sw	s3,64(sp)
     262:	de52                	sw	s4,60(sp)
     264:	dc56                	sw	s5,56(sp)
     266:	da5a                	sw	s6,52(sp)
     268:	d85e                	sw	s7,48(sp)
     26a:	d662                	sw	s8,44(sp)
     26c:	d466                	sw	s9,40(sp)
     26e:	d26a                	sw	s10,36(sp)
     270:	caae                	sw	a1,84(sp)
     272:	ccb2                	sw	a2,88(sp)
     274:	ceb6                	sw	a3,92(sp)
     276:	d0ba                	sw	a4,96(sp)
     278:	d2be                	sw	a5,100(sp)
     27a:	d4c2                	sw	a6,104(sp)
     27c:	d6c6                	sw	a7,108(sp)
     27e:	00054783          	lbu	a5,0(a0)
     282:	05410e93          	add	t4,sp,84
     286:	c676                	sw	t4,12(sp)
     288:	c7a9                	beqz	a5,2d2 <printf+0x7a>
     28a:	00150713          	add	a4,a0,1
     28e:	02500e13          	li	t3,37
     292:	03000293          	li	t0,48
     296:	45a5                	li	a1,9
     298:	04c00f93          	li	t6,76
     29c:	06000413          	li	s0,96
     2a0:	43d9                	li	t2,22
     2a2:	00002f17          	auipc	t5,0x2
     2a6:	c8ef0f13          	add	t5,t5,-882 # 1f30 <main+0x766>
     2aa:	07800913          	li	s2,120
     2ae:	01010813          	add	a6,sp,16
     2b2:	48c1                	li	a7,16
     2b4:	00200637          	lui	a2,0x200
     2b8:	02000313          	li	t1,32
     2bc:	02d00493          	li	s1,45
     2c0:	03c78663          	beq	a5,t3,2ec <printf+0x94>
     2c4:	c25c                	sw	a5,4(a2)
     2c6:	853a                	mv	a0,a4
     2c8:	00054783          	lbu	a5,0(a0)
     2cc:	00150713          	add	a4,a0,1
     2d0:	fbe5                	bnez	a5,2c0 <printf+0x68>
     2d2:	4436                	lw	s0,76(sp)
     2d4:	44a6                	lw	s1,72(sp)
     2d6:	4916                	lw	s2,68(sp)
     2d8:	4986                	lw	s3,64(sp)
     2da:	5a72                	lw	s4,60(sp)
     2dc:	5ae2                	lw	s5,56(sp)
     2de:	5b52                	lw	s6,52(sp)
     2e0:	5bc2                	lw	s7,48(sp)
     2e2:	5c32                	lw	s8,44(sp)
     2e4:	5ca2                	lw	s9,40(sp)
     2e6:	5d12                	lw	s10,36(sp)
     2e8:	6165                	add	sp,sp,112
     2ea:	8082                	ret
     2ec:	00154683          	lbu	a3,1(a0)
     2f0:	22568363          	beq	a3,t0,516 <printf+0x2be>
     2f4:	22968663          	beq	a3,s1,520 <printf+0x2c8>
     2f8:	0509                	add	a0,a0,2
     2fa:	4981                	li	s3,0
     2fc:	fd068793          	add	a5,a3,-48
     300:	0ff7f793          	zext.b	a5,a5
     304:	4701                	li	a4,0
     306:	02f5e263          	bltu	a1,a5,32a <printf+0xd2>
     30a:	00271793          	sll	a5,a4,0x2
     30e:	97ba                	add	a5,a5,a4
     310:	0786                	sll	a5,a5,0x1
     312:	0505                	add	a0,a0,1
     314:	97b6                	add	a5,a5,a3
     316:	fff54683          	lbu	a3,-1(a0)
     31a:	fd078713          	add	a4,a5,-48
     31e:	fd068793          	add	a5,a3,-48
     322:	0ff7f793          	zext.b	a5,a5
     326:	fef5f2e3          	bgeu	a1,a5,30a <printf+0xb2>
     32a:	0df6f793          	and	a5,a3,223
     32e:	03f78563          	beq	a5,t6,358 <printf+0x100>
     332:	d2c5                	beqz	a3,2d2 <printf+0x7a>
     334:	8ab6                	mv	s5,a3
     336:	00d47663          	bgeu	s0,a3,342 <printf+0xea>
     33a:	fe068a93          	add	s5,a3,-32
     33e:	0ffafa93          	zext.b	s5,s5
     342:	fbea8793          	add	a5,s5,-66
     346:	0ff7f793          	zext.b	a5,a5
     34a:	00f3ed63          	bltu	t2,a5,364 <printf+0x10c>
     34e:	078a                	sll	a5,a5,0x2
     350:	97fa                	add	a5,a5,t5
     352:	439c                	lw	a5,0(a5)
     354:	97fa                	add	a5,a5,t5
     356:	8782                	jr	a5
     358:	00054683          	lbu	a3,0(a0)
     35c:	0049e993          	or	s3,s3,4
     360:	0505                	add	a0,a0,1
     362:	bfc1                	j	332 <printf+0xda>
     364:	002007b7          	lui	a5,0x200
     368:	c3d4                	sw	a3,4(a5)
     36a:	bfb9                	j	2c8 <printf+0x70>
     36c:	0049fa13          	and	s4,s3,4
     370:	000eab03          	lw	s6,0(t4)
     374:	004e8793          	add	a5,t4,4
     378:	1a0a1963          	bnez	s4,52a <printf+0x2d2>
     37c:	04400a13          	li	s4,68
     380:	1f4a9d63          	bne	s5,s4,57a <printf+0x322>
     384:	8a5a                	mv	s4,s6
     386:	1a0b4963          	bltz	s6,538 <printf+0x2e0>
     38a:	8ebe                	mv	t4,a5
     38c:	4c01                	li	s8,0
     38e:	4aa9                	li	s5,10
     390:	4c9d                	li	s9,7
     392:	15268b63          	beq	a3,s2,4e8 <printf+0x290>
     396:	4b01                	li	s6,0
     398:	a011                	j	39c <printf+0x144>
     39a:	8b3e                	mv	s6,a5
     39c:	035a77b3          	remu	a5,s4,s5
     3a0:	8bd2                	mv	s7,s4
     3a2:	0ff7f693          	zext.b	a3,a5
     3a6:	035a5a33          	divu	s4,s4,s5
     3aa:	00f5f563          	bgeu	a1,a5,3b4 <printf+0x15c>
     3ae:	96e6                	add	a3,a3,s9
     3b0:	0ff6f693          	zext.b	a3,a3
     3b4:	001b0793          	add	a5,s6,1
     3b8:	00f80d33          	add	s10,a6,a5
     3bc:	03068693          	add	a3,a3,48
     3c0:	fedd0fa3          	sb	a3,-1(s10)
     3c4:	015be563          	bltu	s7,s5,3ce <printf+0x176>
     3c8:	fd1799e3          	bne	a5,a7,39a <printf+0x142>
     3cc:	4b3d                	li	s6,15
     3ce:	000c0963          	beqz	s8,3e0 <printf+0x188>
     3d2:	02078793          	add	a5,a5,32 # 200020 <_stack_start+0x100020>
     3d6:	978a                	add	a5,a5,sp
     3d8:	fe978823          	sb	s1,-16(a5)
     3dc:	002b0793          	add	a5,s6,2
     3e0:	0019fa13          	and	s4,s3,1
     3e4:	0a12                	sll	s4,s4,0x4
     3e6:	0029f993          	and	s3,s3,2
     3ea:	020a0a13          	add	s4,s4,32
     3ee:	00178693          	add	a3,a5,1
     3f2:	16099e63          	bnez	s3,56e <printf+0x316>
     3f6:	00e7fa63          	bgeu	a5,a4,40a <printf+0x1b2>
     3fa:	89b6                	mv	s3,a3
     3fc:	01462223          	sw	s4,4(a2) # 200004 <_stack_start+0x100004>
     400:	0685                	add	a3,a3,1
     402:	ff371ce3          	bne	a4,s3,3fa <printf+0x1a2>
     406:	00170693          	add	a3,a4,1
     40a:	97c2                	add	a5,a5,a6
     40c:	fff7c983          	lbu	s3,-1(a5)
     410:	17fd                	add	a5,a5,-1
     412:	00460a13          	add	s4,a2,4
     416:	01362223          	sw	s3,4(a2)
     41a:	fef819e3          	bne	a6,a5,40c <printf+0x1b4>
     41e:	00168793          	add	a5,a3,1
     422:	eae6f3e3          	bgeu	a3,a4,2c8 <printf+0x70>
     426:	86be                	mv	a3,a5
     428:	006a2023          	sw	t1,0(s4)
     42c:	0785                	add	a5,a5,1
     42e:	fed71ce3          	bne	a4,a3,426 <printf+0x1ce>
     432:	bd59                	j	2c8 <printf+0x70>
     434:	000ec703          	lbu	a4,0(t4)
     438:	002007b7          	lui	a5,0x200
     43c:	0e91                	add	t4,t4,4
     43e:	c3d8                	sw	a4,4(a5)
     440:	b561                	j	2c8 <printf+0x70>
     442:	000ea683          	lw	a3,0(t4)
     446:	0029f993          	and	s3,s3,2
     44a:	0e91                	add	t4,t4,4
     44c:	0006ca83          	lbu	s5,0(a3)
     450:	100a8a63          	beqz	s5,564 <printf+0x30c>
     454:	4781                	li	a5,0
     456:	8b3e                	mv	s6,a5
     458:	0785                	add	a5,a5,1 # 200001 <_stack_start+0x100001>
     45a:	00f68a33          	add	s4,a3,a5
     45e:	000a4a03          	lbu	s4,0(s4)
     462:	fe0a1ae3          	bnez	s4,456 <printf+0x1fe>
     466:	002b0a13          	add	s4,s6,2
     46a:	02099d63          	bnez	s3,4a4 <printf+0x24c>
     46e:	10e7f263          	bgeu	a5,a4,572 <printf+0x31a>
     472:	00200ab7          	lui	s5,0x200
     476:	87d2                	mv	a5,s4
     478:	0a91                	add	s5,s5,4 # 200004 <_stack_start+0x100004>
     47a:	02000b13          	li	s6,32
     47e:	89be                	mv	s3,a5
     480:	016aa023          	sw	s6,0(s5)
     484:	0785                	add	a5,a5,1
     486:	fee9ece3          	bltu	s3,a4,47e <printf+0x226>
     48a:	4781                	li	a5,0
     48c:	01476463          	bltu	a4,s4,494 <printf+0x23c>
     490:	414707b3          	sub	a5,a4,s4
     494:	0006ca83          	lbu	s5,0(a3)
     498:	0a05                	add	s4,s4,1
     49a:	97d2                	add	a5,a5,s4
     49c:	00178a13          	add	s4,a5,1
     4a0:	000a8b63          	beqz	s5,4b6 <printf+0x25e>
     4a4:	002009b7          	lui	s3,0x200
     4a8:	0685                	add	a3,a3,1
     4aa:	0159a223          	sw	s5,4(s3) # 200004 <_stack_start+0x100004>
     4ae:	0006ca83          	lbu	s5,0(a3)
     4b2:	fe0a9be3          	bnez	s5,4a8 <printf+0x250>
     4b6:	e0e7f9e3          	bgeu	a5,a4,2c8 <printf+0x70>
     4ba:	002006b7          	lui	a3,0x200
     4be:	0691                	add	a3,a3,4 # 200004 <_stack_start+0x100004>
     4c0:	02000993          	li	s3,32
     4c4:	87d2                	mv	a5,s4
     4c6:	0136a023          	sw	s3,0(a3)
     4ca:	0a05                	add	s4,s4,1
     4cc:	fee7ece3          	bltu	a5,a4,4c4 <printf+0x26c>
     4d0:	bbe5                	j	2c8 <printf+0x70>
     4d2:	0049f793          	and	a5,s3,4
     4d6:	c3d9                	beqz	a5,55c <printf+0x304>
     4d8:	000eaa03          	lw	s4,0(t4)
     4dc:	4c01                	li	s8,0
     4de:	0e91                	add	t4,t4,4
     4e0:	4aa1                	li	s5,8
     4e2:	4c9d                	li	s9,7
     4e4:	eb2699e3          	bne	a3,s2,396 <printf+0x13e>
     4e8:	02700c93          	li	s9,39
     4ec:	b56d                	j	396 <printf+0x13e>
     4ee:	0049f793          	and	a5,s3,4
     4f2:	c3ad                	beqz	a5,554 <printf+0x2fc>
     4f4:	000eaa03          	lw	s4,0(t4)
     4f8:	4c01                	li	s8,0
     4fa:	0e91                	add	t4,t4,4
     4fc:	4ac1                	li	s5,16
     4fe:	bd49                	j	390 <printf+0x138>
     500:	0049f793          	and	a5,s3,4
     504:	e3b1                	bnez	a5,548 <printf+0x2f0>
     506:	4a89                	li	s5,2
     508:	004e8793          	add	a5,t4,4
     50c:	000eaa03          	lw	s4,0(t4)
     510:	4c01                	li	s8,0
     512:	8ebe                	mv	t4,a5
     514:	bdb5                	j	390 <printf+0x138>
     516:	00254683          	lbu	a3,2(a0)
     51a:	4985                	li	s3,1
     51c:	050d                	add	a0,a0,3
     51e:	bbf9                	j	2fc <printf+0xa4>
     520:	00254683          	lbu	a3,2(a0)
     524:	4989                	li	s3,2
     526:	050d                	add	a0,a0,3
     528:	bbd1                	j	2fc <printf+0xa4>
     52a:	04400e93          	li	t4,68
     52e:	8a5a                	mv	s4,s6
     530:	e5da9de3          	bne	s5,t4,38a <printf+0x132>
     534:	e40b5be3          	bgez	s6,38a <printf+0x132>
     538:	41600a33          	neg	s4,s6
     53c:	0089e993          	or	s3,s3,8
     540:	8ebe                	mv	t4,a5
     542:	4c21                	li	s8,8
     544:	4aa9                	li	s5,10
     546:	b5a9                	j	390 <printf+0x138>
     548:	000eaa03          	lw	s4,0(t4)
     54c:	4c01                	li	s8,0
     54e:	0e91                	add	t4,t4,4
     550:	4a89                	li	s5,2
     552:	bd3d                	j	390 <printf+0x138>
     554:	4ac1                	li	s5,16
     556:	004e8793          	add	a5,t4,4
     55a:	bf4d                	j	50c <printf+0x2b4>
     55c:	4aa1                	li	s5,8
     55e:	004e8793          	add	a5,t4,4
     562:	b76d                	j	50c <printf+0x2b4>
     564:	4a05                	li	s4,1
     566:	00099c63          	bnez	s3,57e <printf+0x326>
     56a:	f701                	bnez	a4,472 <printf+0x21a>
     56c:	bbb1                	j	2c8 <printf+0x70>
     56e:	86be                	mv	a3,a5
     570:	bd69                	j	40a <printf+0x1b2>
     572:	87d2                	mv	a5,s4
     574:	003b0a13          	add	s4,s6,3
     578:	b735                	j	4a4 <printf+0x24c>
     57a:	4aa9                	li	s5,10
     57c:	bf41                	j	50c <printf+0x2b4>
     57e:	4781                	li	a5,0
     580:	bf1d                	j	4b6 <printf+0x25e>

00000582 <iterate>:
     582:	1141                	add	sp,sp,-16
     584:	c04a                	sw	s2,0(sp)
     586:	01c52903          	lw	s2,28(a0)
     58a:	c606                	sw	ra,12(sp)
     58c:	c422                	sw	s0,8(sp)
     58e:	c226                	sw	s1,4(sp)
     590:	02052c23          	sw	zero,56(a0)
     594:	02052e23          	sw	zero,60(a0)
     598:	02090c63          	beqz	s2,5d0 <iterate+0x4e>
     59c:	842a                	mv	s0,a0
     59e:	4481                	li	s1,0
     5a0:	4585                	li	a1,1
     5a2:	8522                	mv	a0,s0
     5a4:	2e11                	jal	8b8 <core_bench_list>
     5a6:	03845583          	lhu	a1,56(s0)
     5aa:	05e010ef          	jal	1608 <crcu16>
     5ae:	55fd                	li	a1,-1
     5b0:	02a41c23          	sh	a0,56(s0)
     5b4:	8522                	mv	a0,s0
     5b6:	2609                	jal	8b8 <core_bench_list>
     5b8:	03845583          	lhu	a1,56(s0)
     5bc:	04c010ef          	jal	1608 <crcu16>
     5c0:	02a41c23          	sh	a0,56(s0)
     5c4:	e099                	bnez	s1,5ca <iterate+0x48>
     5c6:	02a41d23          	sh	a0,58(s0)
     5ca:	0485                	add	s1,s1,1
     5cc:	fc991ae3          	bne	s2,s1,5a0 <iterate+0x1e>
     5d0:	40b2                	lw	ra,12(sp)
     5d2:	4422                	lw	s0,8(sp)
     5d4:	4492                	lw	s1,4(sp)
     5d6:	4902                	lw	s2,0(sp)
     5d8:	4501                	li	a0,0
     5da:	0141                	add	sp,sp,16
     5dc:	8082                	ret

000005de <cmp_idx>:
     5de:	c619                	beqz	a2,5ec <cmp_idx+0xe>
     5e0:	00251503          	lh	a0,2(a0)
     5e4:	00259783          	lh	a5,2(a1) # 200002 <_stack_start+0x100002>
     5e8:	8d1d                	sub	a0,a0,a5
     5ea:	8082                	ret
     5ec:	00051783          	lh	a5,0(a0)
     5f0:	01079713          	sll	a4,a5,0x10
     5f4:	8341                	srl	a4,a4,0x10
     5f6:	8321                	srl	a4,a4,0x8
     5f8:	f007f793          	and	a5,a5,-256
     5fc:	8fd9                	or	a5,a5,a4
     5fe:	00f51023          	sh	a5,0(a0)
     602:	00059783          	lh	a5,0(a1)
     606:	00251503          	lh	a0,2(a0)
     60a:	01079713          	sll	a4,a5,0x10
     60e:	8341                	srl	a4,a4,0x10
     610:	8321                	srl	a4,a4,0x8
     612:	f007f793          	and	a5,a5,-256
     616:	8fd9                	or	a5,a5,a4
     618:	00f59023          	sh	a5,0(a1)
     61c:	00259783          	lh	a5,2(a1)
     620:	8d1d                	sub	a0,a0,a5
     622:	8082                	ret

00000624 <calc_func>:
     624:	1101                	add	sp,sp,-32
     626:	cc22                	sw	s0,24(sp)
     628:	00051403          	lh	s0,0(a0)
     62c:	ce06                	sw	ra,28(sp)
     62e:	ca26                	sw	s1,20(sp)
     630:	40745793          	sra	a5,s0,0x7
     634:	c84a                	sw	s2,16(sp)
     636:	c64e                	sw	s3,12(sp)
     638:	8b85                	and	a5,a5,1
     63a:	cb91                	beqz	a5,64e <calc_func+0x2a>
     63c:	40f2                	lw	ra,28(sp)
     63e:	07f47513          	and	a0,s0,127
     642:	4462                	lw	s0,24(sp)
     644:	44d2                	lw	s1,20(sp)
     646:	4942                	lw	s2,16(sp)
     648:	49b2                	lw	s3,12(sp)
     64a:	6105                	add	sp,sp,32
     64c:	8082                	ret
     64e:	40345713          	sra	a4,s0,0x3
     652:	8b3d                	and	a4,a4,15
     654:	84ae                	mv	s1,a1
     656:	00747693          	and	a3,s0,7
     65a:	00471593          	sll	a1,a4,0x4
     65e:	0384d783          	lhu	a5,56(s1)
     662:	89aa                	mv	s3,a0
     664:	8dd9                	or	a1,a1,a4
     666:	ce95                	beqz	a3,6a2 <calc_func+0x7e>
     668:	4705                	li	a4,1
     66a:	06e68963          	beq	a3,a4,6dc <calc_func+0xb8>
     66e:	01041513          	sll	a0,s0,0x10
     672:	8141                	srl	a0,a0,0x10
     674:	8922                	mv	s2,s0
     676:	85be                	mv	a1,a5
     678:	791000ef          	jal	1608 <crcu16>
     67c:	87aa                	mv	a5,a0
     67e:	f0047413          	and	s0,s0,-256
     682:	07f97513          	and	a0,s2,127
     686:	8c49                	or	s0,s0,a0
     688:	02f49c23          	sh	a5,56(s1)
     68c:	08046413          	or	s0,s0,128
     690:	00899023          	sh	s0,0(s3)
     694:	40f2                	lw	ra,28(sp)
     696:	4462                	lw	s0,24(sp)
     698:	44d2                	lw	s1,20(sp)
     69a:	4942                	lw	s2,16(sp)
     69c:	49b2                	lw	s3,12(sp)
     69e:	6105                	add	sp,sp,32
     6a0:	8082                	ret
     6a2:	02200693          	li	a3,34
     6a6:	872e                	mv	a4,a1
     6a8:	00d5d463          	bge	a1,a3,6b0 <calc_func+0x8c>
     6ac:	02200713          	li	a4,34
     6b0:	00249683          	lh	a3,2(s1)
     6b4:	00049603          	lh	a2,0(s1)
     6b8:	48cc                	lw	a1,20(s1)
     6ba:	4c88                	lw	a0,24(s1)
     6bc:	0ff77713          	zext.b	a4,a4
     6c0:	5b5000ef          	jal	1474 <core_bench_state>
     6c4:	03e4d783          	lhu	a5,62(s1)
     6c8:	e399                	bnez	a5,6ce <calc_func+0xaa>
     6ca:	02a49f23          	sh	a0,62(s1)
     6ce:	01051913          	sll	s2,a0,0x10
     6d2:	0384d783          	lhu	a5,56(s1)
     6d6:	41095913          	sra	s2,s2,0x10
     6da:	bf71                	j	676 <calc_func+0x52>
     6dc:	863e                	mv	a2,a5
     6de:	02848513          	add	a0,s1,40
     6e2:	28b000ef          	jal	116c <core_bench_matrix>
     6e6:	03c4d783          	lhu	a5,60(s1)
     6ea:	f3f5                	bnez	a5,6ce <calc_func+0xaa>
     6ec:	02a49e23          	sh	a0,60(s1)
     6f0:	bff9                	j	6ce <calc_func+0xaa>

000006f2 <cmp_complex>:
     6f2:	1141                	add	sp,sp,-16
     6f4:	c226                	sw	s1,4(sp)
     6f6:	84ae                	mv	s1,a1
     6f8:	85b2                	mv	a1,a2
     6fa:	c606                	sw	ra,12(sp)
     6fc:	c422                	sw	s0,8(sp)
     6fe:	8432                	mv	s0,a2
     700:	3715                	jal	624 <calc_func>
     702:	87aa                	mv	a5,a0
     704:	85a2                	mv	a1,s0
     706:	8526                	mv	a0,s1
     708:	843e                	mv	s0,a5
     70a:	3f29                	jal	624 <calc_func>
     70c:	40b2                	lw	ra,12(sp)
     70e:	40a40533          	sub	a0,s0,a0
     712:	4422                	lw	s0,8(sp)
     714:	4492                	lw	s1,4(sp)
     716:	0141                	add	sp,sp,16
     718:	8082                	ret

0000071a <copy_info>:
     71a:	00059703          	lh	a4,0(a1)
     71e:	00259783          	lh	a5,2(a1)
     722:	00e51023          	sh	a4,0(a0)
     726:	00f51123          	sh	a5,2(a0)
     72a:	8082                	ret

0000072c <core_list_insert_new>:
     72c:	00062803          	lw	a6,0(a2)
     730:	00880893          	add	a7,a6,8
     734:	02e8ff63          	bgeu	a7,a4,772 <core_list_insert_new+0x46>
     738:	4298                	lw	a4,0(a3)
     73a:	00470313          	add	t1,a4,4
     73e:	02f37a63          	bgeu	t1,a5,772 <core_list_insert_new+0x46>
     742:	01162023          	sw	a7,0(a2)
     746:	411c                	lw	a5,0(a0)
     748:	00059883          	lh	a7,0(a1)
     74c:	00259603          	lh	a2,2(a1)
     750:	00f82023          	sw	a5,0(a6)
     754:	01052023          	sw	a6,0(a0)
     758:	00e82223          	sw	a4,4(a6)
     75c:	429c                	lw	a5,0(a3)
     75e:	8542                	mv	a0,a6
     760:	0791                	add	a5,a5,4
     762:	c29c                	sw	a5,0(a3)
     764:	00482783          	lw	a5,4(a6)
     768:	01179023          	sh	a7,0(a5)
     76c:	00c79123          	sh	a2,2(a5)
     770:	8082                	ret
     772:	4801                	li	a6,0
     774:	8542                	mv	a0,a6
     776:	8082                	ret

00000778 <core_list_remove>:
     778:	87aa                	mv	a5,a0
     77a:	4108                	lw	a0,0(a0)
     77c:	43d4                	lw	a3,4(a5)
     77e:	4150                	lw	a2,4(a0)
     780:	4118                	lw	a4,0(a0)
     782:	c3d0                	sw	a2,4(a5)
     784:	c154                	sw	a3,4(a0)
     786:	c398                	sw	a4,0(a5)
     788:	00052023          	sw	zero,0(a0)
     78c:	8082                	ret

0000078e <core_list_undo_remove>:
     78e:	41d0                	lw	a2,4(a1)
     790:	4154                	lw	a3,4(a0)
     792:	4198                	lw	a4,0(a1)
     794:	c150                	sw	a2,4(a0)
     796:	c1d4                	sw	a3,4(a1)
     798:	c118                	sw	a4,0(a0)
     79a:	c188                	sw	a0,0(a1)
     79c:	8082                	ret

0000079e <core_list_find>:
     79e:	00259703          	lh	a4,2(a1)
     7a2:	00074c63          	bltz	a4,7ba <core_list_find+0x1c>
     7a6:	e501                	bnez	a0,7ae <core_list_find+0x10>
     7a8:	a03d                	j	7d6 <core_list_find+0x38>
     7aa:	4108                	lw	a0,0(a0)
     7ac:	c11d                	beqz	a0,7d2 <core_list_find+0x34>
     7ae:	415c                	lw	a5,4(a0)
     7b0:	00279783          	lh	a5,2(a5)
     7b4:	fee79be3          	bne	a5,a4,7aa <core_list_find+0xc>
     7b8:	8082                	ret
     7ba:	cd01                	beqz	a0,7d2 <core_list_find+0x34>
     7bc:	00059703          	lh	a4,0(a1)
     7c0:	a019                	j	7c6 <core_list_find+0x28>
     7c2:	4108                	lw	a0,0(a0)
     7c4:	c901                	beqz	a0,7d4 <core_list_find+0x36>
     7c6:	415c                	lw	a5,4(a0)
     7c8:	0007c783          	lbu	a5,0(a5)
     7cc:	fee79be3          	bne	a5,a4,7c2 <core_list_find+0x24>
     7d0:	8082                	ret
     7d2:	4501                	li	a0,0
     7d4:	8082                	ret
     7d6:	8082                	ret

000007d8 <core_list_reverse>:
     7d8:	c901                	beqz	a0,7e8 <core_list_reverse+0x10>
     7da:	4701                	li	a4,0
     7dc:	a011                	j	7e0 <core_list_reverse+0x8>
     7de:	853e                	mv	a0,a5
     7e0:	411c                	lw	a5,0(a0)
     7e2:	c118                	sw	a4,0(a0)
     7e4:	872a                	mv	a4,a0
     7e6:	ffe5                	bnez	a5,7de <core_list_reverse+0x6>
     7e8:	8082                	ret

000007ea <core_list_mergesort>:
     7ea:	7179                	add	sp,sp,-48
     7ec:	ce4e                	sw	s3,28(sp)
     7ee:	ca56                	sw	s5,20(sp)
     7f0:	c65e                	sw	s7,12(sp)
     7f2:	c462                	sw	s8,8(sp)
     7f4:	c06a                	sw	s10,0(sp)
     7f6:	d606                	sw	ra,44(sp)
     7f8:	d422                	sw	s0,40(sp)
     7fa:	d226                	sw	s1,36(sp)
     7fc:	d04a                	sw	s2,32(sp)
     7fe:	cc52                	sw	s4,24(sp)
     800:	c85a                	sw	s6,16(sp)
     802:	c266                	sw	s9,4(sp)
     804:	89aa                	mv	s3,a0
     806:	8c2e                	mv	s8,a1
     808:	8bb2                	mv	s7,a2
     80a:	4a85                	li	s5,1
     80c:	4d05                	li	s10,1
     80e:	08098363          	beqz	s3,894 <core_list_mergesort+0xaa>
     812:	4c81                	li	s9,0
     814:	4481                	li	s1,0
     816:	4b01                	li	s6,0
     818:	0c85                	add	s9,s9,1
     81a:	87ce                	mv	a5,s3
     81c:	4401                	li	s0,0
     81e:	439c                	lw	a5,0(a5)
     820:	0405                	add	s0,s0,1
     822:	c399                	beqz	a5,828 <core_list_mergesort+0x3e>
     824:	fe8a9de3          	bne	s5,s0,81e <core_list_mergesort+0x34>
     828:	894e                	mv	s2,s3
     82a:	8a56                	mv	s4,s5
     82c:	89be                	mv	s3,a5
     82e:	00805d63          	blez	s0,848 <core_list_mergesort+0x5e>
     832:	020a1863          	bnez	s4,862 <core_list_mergesort+0x78>
     836:	87ca                	mv	a5,s2
     838:	00092903          	lw	s2,0(s2)
     83c:	147d                	add	s0,s0,-1
     83e:	cc99                	beqz	s1,85c <core_list_mergesort+0x72>
     840:	c09c                	sw	a5,0(s1)
     842:	84be                	mv	s1,a5
     844:	fe8047e3          	bgtz	s0,832 <core_list_mergesort+0x48>
     848:	03405c63          	blez	s4,880 <core_list_mergesort+0x96>
     84c:	02098c63          	beqz	s3,884 <core_list_mergesort+0x9a>
     850:	e819                	bnez	s0,866 <core_list_mergesort+0x7c>
     852:	87ce                	mv	a5,s3
     854:	1a7d                	add	s4,s4,-1
     856:	0009a983          	lw	s3,0(s3)
     85a:	f0fd                	bnez	s1,840 <core_list_mergesort+0x56>
     85c:	8b3e                	mv	s6,a5
     85e:	84be                	mv	s1,a5
     860:	b7d5                	j	844 <core_list_mergesort+0x5a>
     862:	fc098ae3          	beqz	s3,836 <core_list_mergesort+0x4c>
     866:	0049a583          	lw	a1,4(s3)
     86a:	00492503          	lw	a0,4(s2)
     86e:	865e                	mv	a2,s7
     870:	9c02                	jalr	s8
     872:	fca052e3          	blez	a0,836 <core_list_mergesort+0x4c>
     876:	87ce                	mv	a5,s3
     878:	1a7d                	add	s4,s4,-1
     87a:	0009a983          	lw	s3,0(s3)
     87e:	b7c1                	j	83e <core_list_mergesort+0x54>
     880:	f8099ce3          	bnez	s3,818 <core_list_mergesort+0x2e>
     884:	0004a023          	sw	zero,0(s1)
     888:	01ac8963          	beq	s9,s10,89a <core_list_mergesort+0xb0>
     88c:	89da                	mv	s3,s6
     88e:	0a86                	sll	s5,s5,0x1
     890:	f80991e3          	bnez	s3,812 <core_list_mergesort+0x28>
     894:	00002023          	sw	zero,0(zero) # 0 <get_cycle_value>
     898:	9002                	ebreak
     89a:	50b2                	lw	ra,44(sp)
     89c:	5422                	lw	s0,40(sp)
     89e:	5492                	lw	s1,36(sp)
     8a0:	5902                	lw	s2,32(sp)
     8a2:	49f2                	lw	s3,28(sp)
     8a4:	4a62                	lw	s4,24(sp)
     8a6:	4ad2                	lw	s5,20(sp)
     8a8:	4bb2                	lw	s7,12(sp)
     8aa:	4c22                	lw	s8,8(sp)
     8ac:	4c92                	lw	s9,4(sp)
     8ae:	4d02                	lw	s10,0(sp)
     8b0:	855a                	mv	a0,s6
     8b2:	4b42                	lw	s6,16(sp)
     8b4:	6145                	add	sp,sp,48
     8b6:	8082                	ret

000008b8 <core_bench_list>:
     8b8:	862a                	mv	a2,a0
     8ba:	00451503          	lh	a0,4(a0)
     8be:	1101                	add	sp,sp,-32
     8c0:	cc22                	sw	s0,24(sp)
     8c2:	ca26                	sw	s1,20(sp)
     8c4:	ce06                	sw	ra,28(sp)
     8c6:	c84a                	sw	s2,16(sp)
     8c8:	c64e                	sw	s3,12(sp)
     8ca:	c452                	sw	s4,8(sp)
     8cc:	c256                	sw	s5,4(sp)
     8ce:	5240                	lw	s0,36(a2)
     8d0:	84ae                	mv	s1,a1
     8d2:	1aa05d63          	blez	a0,a8c <core_bench_list+0x1d4>
     8d6:	4881                	li	a7,0
     8d8:	4e01                	li	t3,0
     8da:	4301                	li	t1,0
     8dc:	4801                	li	a6,0
     8de:	0ff8fa13          	zext.b	s4,a7
     8e2:	1404ca63          	bltz	s1,a36 <core_bench_list+0x17e>
     8e6:	1a040663          	beqz	s0,a92 <core_bench_list+0x1da>
     8ea:	87a2                	mv	a5,s0
     8ec:	a019                	j	8f2 <core_bench_list+0x3a>
     8ee:	439c                	lw	a5,0(a5)
     8f0:	c791                	beqz	a5,8fc <core_bench_list+0x44>
     8f2:	43d8                	lw	a4,4(a5)
     8f4:	00271703          	lh	a4,2(a4)
     8f8:	fe971be3          	bne	a4,s1,8ee <core_bench_list+0x36>
     8fc:	4681                	li	a3,0
     8fe:	a011                	j	902 <core_bench_list+0x4a>
     900:	843a                	mv	s0,a4
     902:	4018                	lw	a4,0(s0)
     904:	c014                	sw	a3,0(s0)
     906:	86a2                	mv	a3,s0
     908:	ff65                	bnez	a4,900 <core_bench_list+0x48>
     90a:	14078263          	beqz	a5,a4e <core_bench_list+0x196>
     90e:	43d8                	lw	a4,4(a5)
     910:	00071703          	lh	a4,0(a4)
     914:	00177693          	and	a3,a4,1
     918:	ca81                	beqz	a3,928 <core_bench_list+0x70>
     91a:	8725                	sra	a4,a4,0x9
     91c:	8b05                	and	a4,a4,1
     91e:	9742                	add	a4,a4,a6
     920:	01071813          	sll	a6,a4,0x10
     924:	01085813          	srl	a6,a6,0x10
     928:	4398                	lw	a4,0(a5)
     92a:	c711                	beqz	a4,936 <core_bench_list+0x7e>
     92c:	4314                	lw	a3,0(a4)
     92e:	c394                	sw	a3,0(a5)
     930:	401c                	lw	a5,0(s0)
     932:	c31c                	sw	a5,0(a4)
     934:	c018                	sw	a4,0(s0)
     936:	0305                	add	t1,t1,1
     938:	0342                	sll	t1,t1,0x10
     93a:	01035313          	srl	t1,t1,0x10
     93e:	0004c563          	bltz	s1,948 <core_bench_list+0x90>
     942:	0485                	add	s1,s1,1
     944:	04c2                	sll	s1,s1,0x10
     946:	84c1                	sra	s1,s1,0x10
     948:	0885                	add	a7,a7,1
     94a:	08c2                	sll	a7,a7,0x10
     94c:	4108d893          	sra	a7,a7,0x10
     950:	f91517e3          	bne	a0,a7,8de <core_bench_list+0x26>
     954:	00231793          	sll	a5,t1,0x2
     958:	41c787b3          	sub	a5,a5,t3
     95c:	983e                	add	a6,a6,a5
     95e:	01081913          	sll	s2,a6,0x10
     962:	01095913          	srl	s2,s2,0x10
     966:	00b05963          	blez	a1,978 <core_bench_list+0xc0>
     96a:	8522                	mv	a0,s0
     96c:	00000597          	auipc	a1,0x0
     970:	d8658593          	add	a1,a1,-634 # 6f2 <cmp_complex>
     974:	3d9d                	jal	7ea <core_list_mergesort>
     976:	842a                	mv	s0,a0
     978:	401c                	lw	a5,0(s0)
     97a:	89a2                	mv	s3,s0
     97c:	0007aa83          	lw	s5,0(a5)
     980:	43d8                	lw	a4,4(a5)
     982:	004aa603          	lw	a2,4(s5)
     986:	000aa683          	lw	a3,0(s5)
     98a:	c3d0                	sw	a2,4(a5)
     98c:	00eaa223          	sw	a4,4(s5)
     990:	c394                	sw	a3,0(a5)
     992:	000aa023          	sw	zero,0(s5)
     996:	0004d763          	bgez	s1,9a4 <core_bench_list+0xec>
     99a:	a079                	j	a28 <core_bench_list+0x170>
     99c:	0009a983          	lw	s3,0(s3)
     9a0:	0c098663          	beqz	s3,a6c <core_bench_list+0x1b4>
     9a4:	0049a783          	lw	a5,4(s3)
     9a8:	00279783          	lh	a5,2(a5)
     9ac:	fe9798e3          	bne	a5,s1,99c <core_bench_list+0xe4>
     9b0:	405c                	lw	a5,4(s0)
     9b2:	85ca                	mv	a1,s2
     9b4:	00079503          	lh	a0,0(a5)
     9b8:	553000ef          	jal	170a <crc16>
     9bc:	0009a983          	lw	s3,0(s3)
     9c0:	892a                	mv	s2,a0
     9c2:	fe0997e3          	bnez	s3,9b0 <core_bench_list+0xf8>
     9c6:	00042983          	lw	s3,0(s0)
     9ca:	004aa703          	lw	a4,4(s5)
     9ce:	0049a683          	lw	a3,4(s3)
     9d2:	0009a783          	lw	a5,0(s3)
     9d6:	8522                	mv	a0,s0
     9d8:	00daa223          	sw	a3,4(s5)
     9dc:	00e9a223          	sw	a4,4(s3)
     9e0:	00faa023          	sw	a5,0(s5)
     9e4:	4601                	li	a2,0
     9e6:	0159a023          	sw	s5,0(s3)
     9ea:	00000597          	auipc	a1,0x0
     9ee:	bf458593          	add	a1,a1,-1036 # 5de <cmp_idx>
     9f2:	3be5                	jal	7ea <core_list_mergesort>
     9f4:	4100                	lw	s0,0(a0)
     9f6:	84aa                	mv	s1,a0
     9f8:	c811                	beqz	s0,a0c <core_bench_list+0x154>
     9fa:	40dc                	lw	a5,4(s1)
     9fc:	85ca                	mv	a1,s2
     9fe:	00079503          	lh	a0,0(a5)
     a02:	509000ef          	jal	170a <crc16>
     a06:	4000                	lw	s0,0(s0)
     a08:	892a                	mv	s2,a0
     a0a:	f865                	bnez	s0,9fa <core_bench_list+0x142>
     a0c:	40f2                	lw	ra,28(sp)
     a0e:	4462                	lw	s0,24(sp)
     a10:	44d2                	lw	s1,20(sp)
     a12:	49b2                	lw	s3,12(sp)
     a14:	4a22                	lw	s4,8(sp)
     a16:	4a92                	lw	s5,4(sp)
     a18:	854a                	mv	a0,s2
     a1a:	4942                	lw	s2,16(sp)
     a1c:	6105                	add	sp,sp,32
     a1e:	8082                	ret
     a20:	0009a983          	lw	s3,0(s3)
     a24:	04098463          	beqz	s3,a6c <core_bench_list+0x1b4>
     a28:	0049a783          	lw	a5,4(s3)
     a2c:	0007c783          	lbu	a5,0(a5)
     a30:	fefa18e3          	bne	s4,a5,a20 <core_bench_list+0x168>
     a34:	bfb5                	j	9b0 <core_bench_list+0xf8>
     a36:	cc31                	beqz	s0,a92 <core_bench_list+0x1da>
     a38:	87a2                	mv	a5,s0
     a3a:	a021                	j	a42 <core_bench_list+0x18a>
     a3c:	439c                	lw	a5,0(a5)
     a3e:	ea078fe3          	beqz	a5,8fc <core_bench_list+0x44>
     a42:	43d8                	lw	a4,4(a5)
     a44:	00074703          	lbu	a4,0(a4)
     a48:	feea1ae3          	bne	s4,a4,a3c <core_bench_list+0x184>
     a4c:	bd45                	j	8fc <core_bench_list+0x44>
     a4e:	401c                	lw	a5,0(s0)
     a50:	0e05                	add	t3,t3,1
     a52:	0e42                	sll	t3,t3,0x10
     a54:	43dc                	lw	a5,4(a5)
     a56:	010e5e13          	srl	t3,t3,0x10
     a5a:	00178783          	lb	a5,1(a5)
     a5e:	8b85                	and	a5,a5,1
     a60:	97c2                	add	a5,a5,a6
     a62:	01079813          	sll	a6,a5,0x10
     a66:	01085813          	srl	a6,a6,0x10
     a6a:	bdd1                	j	93e <core_bench_list+0x86>
     a6c:	00042983          	lw	s3,0(s0)
     a70:	f4098fe3          	beqz	s3,9ce <core_bench_list+0x116>
     a74:	405c                	lw	a5,4(s0)
     a76:	85ca                	mv	a1,s2
     a78:	00079503          	lh	a0,0(a5)
     a7c:	48f000ef          	jal	170a <crc16>
     a80:	0009a983          	lw	s3,0(s3)
     a84:	892a                	mv	s2,a0
     a86:	f20995e3          	bnez	s3,9b0 <core_bench_list+0xf8>
     a8a:	bf35                	j	9c6 <core_bench_list+0x10e>
     a8c:	4901                	li	s2,0
     a8e:	4a01                	li	s4,0
     a90:	bdd9                	j	966 <core_bench_list+0xae>
     a92:	00002783          	lw	a5,0(zero) # 0 <get_cycle_value>
     a96:	9002                	ebreak

00000a98 <core_list_init>:
     a98:	47d1                	li	a5,20
     a9a:	02f55e33          	divu	t3,a0,a5
     a9e:	77e1                	lui	a5,0xffff8
     aa0:	0005a023          	sw	zero,0(a1)
     aa4:	08078713          	add	a4,a5,128 # ffff8080 <_stack_start+0xffef8080>
     aa8:	01058693          	add	a3,a1,16
     aac:	852e                	mv	a0,a1
     aae:	00858313          	add	t1,a1,8
     ab2:	1e79                	add	t3,t3,-2
     ab4:	003e1f13          	sll	t5,t3,0x3
     ab8:	9f2e                	add	t5,t5,a1
     aba:	01e5a223          	sw	t5,4(a1)
     abe:	002e1f93          	sll	t6,t3,0x2
     ac2:	00ef1023          	sh	a4,0(t5)
     ac6:	000f1123          	sh	zero,2(t5)
     aca:	9ffa                	add	t6,t6,t5
     acc:	004f0713          	add	a4,t5,4
     ad0:	0fe6fc63          	bgeu	a3,t5,bc8 <core_list_init+0x130>
     ad4:	008f0893          	add	a7,t5,8
     ad8:	0ff8f863          	bgeu	a7,t6,bc8 <core_list_init+0x130>
     adc:	c5d8                	sw	a4,12(a1)
     ade:	0005a423          	sw	zero,8(a1)
     ae2:	0065a023          	sw	t1,0(a1)
     ae6:	fff7c793          	not	a5,a5
     aea:	577d                	li	a4,-1
     aec:	00ef1223          	sh	a4,4(t5)
     af0:	00ff1323          	sh	a5,6(t5)
     af4:	040e0e63          	beqz	t3,b50 <core_list_init+0xb8>
     af8:	01061293          	sll	t0,a2,0x10
     afc:	73e1                	lui	t2,0xffff8
     afe:	0102d293          	srl	t0,t0,0x10
     b02:	4801                	li	a6,0
     b04:	fff3c393          	not	t2,t2
     b08:	01081713          	sll	a4,a6,0x10
     b0c:	8341                	srl	a4,a4,0x10
     b0e:	00e2c7b3          	xor	a5,t0,a4
     b12:	078e                	sll	a5,a5,0x3
     b14:	8b1d                	and	a4,a4,7
     b16:	0787f793          	and	a5,a5,120
     b1a:	8fd9                	or	a5,a5,a4
     b1c:	00879713          	sll	a4,a5,0x8
     b20:	00868593          	add	a1,a3,8
     b24:	0805                	add	a6,a6,1
     b26:	00488e93          	add	t4,a7,4
     b2a:	8f5d                	or	a4,a4,a5
     b2c:	03e5f063          	bgeu	a1,t5,b4c <core_list_init+0xb4>
     b30:	01fefe63          	bgeu	t4,t6,b4c <core_list_init+0xb4>
     b34:	0066a023          	sw	t1,0(a3)
     b38:	c114                	sw	a3,0(a0)
     b3a:	0116a223          	sw	a7,4(a3)
     b3e:	00e89023          	sh	a4,0(a7)
     b42:	00789123          	sh	t2,2(a7)
     b46:	8336                	mv	t1,a3
     b48:	88f6                	mv	a7,t4
     b4a:	86ae                	mv	a3,a1
     b4c:	fb0e1ee3          	bne	t3,a6,b08 <core_list_init+0x70>
     b50:	00032803          	lw	a6,0(t1)
     b54:	06080463          	beqz	a6,bbc <core_list_init+0x124>
     b58:	4795                	li	a5,5
     b5a:	6e91                	lui	t4,0x4
     b5c:	02fe5e33          	divu	t3,t3,a5
     b60:	20000713          	li	a4,512
     b64:	4685                	li	a3,1
     b66:	1efd                	add	t4,t4,-1 # 3fff <_bss_end+0x1a1b>
     b68:	a00d                	j	b8a <core_list_init+0xf2>
     b6a:	01069793          	sll	a5,a3,0x10
     b6e:	00082883          	lw	a7,0(a6)
     b72:	87c1                	sra	a5,a5,0x10
     b74:	10070713          	add	a4,a4,256
     b78:	0742                	sll	a4,a4,0x10
     b7a:	00f59123          	sh	a5,2(a1)
     b7e:	8342                	mv	t1,a6
     b80:	0685                	add	a3,a3,1
     b82:	8341                	srl	a4,a4,0x10
     b84:	02088c63          	beqz	a7,bbc <core_list_init+0x124>
     b88:	8846                	mv	a6,a7
     b8a:	00c6c5b3          	xor	a1,a3,a2
     b8e:	70077793          	and	a5,a4,1792
     b92:	8fcd                	or	a5,a5,a1
     b94:	01d7f7b3          	and	a5,a5,t4
     b98:	00432583          	lw	a1,4(t1)
     b9c:	fdc6e7e3          	bltu	a3,t3,b6a <core_list_init+0xd2>
     ba0:	00082883          	lw	a7,0(a6)
     ba4:	07c2                	sll	a5,a5,0x10
     ba6:	87c1                	sra	a5,a5,0x10
     ba8:	10070713          	add	a4,a4,256
     bac:	0742                	sll	a4,a4,0x10
     bae:	00f59123          	sh	a5,2(a1)
     bb2:	8342                	mv	t1,a6
     bb4:	0685                	add	a3,a3,1
     bb6:	8341                	srl	a4,a4,0x10
     bb8:	fc0898e3          	bnez	a7,b88 <core_list_init+0xf0>
     bbc:	4601                	li	a2,0
     bbe:	00000597          	auipc	a1,0x0
     bc2:	a2058593          	add	a1,a1,-1504 # 5de <cmp_idx>
     bc6:	b115                	j	7ea <core_list_mergesort>
     bc8:	869a                	mv	a3,t1
     bca:	88ba                	mv	a7,a4
     bcc:	4301                	li	t1,0
     bce:	b71d                	j	af4 <core_list_init+0x5c>

00000bd0 <core_init_matrix>:
     bd0:	1141                	add	sp,sp,-16
     bd2:	c622                	sw	s0,12(sp)
     bd4:	c426                	sw	s1,8(sp)
     bd6:	c24a                	sw	s2,4(sp)
     bd8:	c04e                	sw	s3,0(sp)
     bda:	882a                	mv	a6,a0
     bdc:	e211                	bnez	a2,be0 <core_init_matrix+0x10>
     bde:	4605                	li	a2,1
     be0:	4781                	li	a5,0
     be2:	0a080863          	beqz	a6,c92 <core_init_matrix+0xc2>
     be6:	853e                	mv	a0,a5
     be8:	0785                	add	a5,a5,1
     bea:	02f78733          	mul	a4,a5,a5
     bee:	070e                	sll	a4,a4,0x3
     bf0:	ff076be3          	bltu	a4,a6,be6 <core_init_matrix+0x16>
     bf4:	02a502b3          	mul	t0,a0,a0
     bf8:	15fd                	add	a1,a1,-1
     bfa:	ffc5f793          	and	a5,a1,-4
     bfe:	00478493          	add	s1,a5,4
     c02:	892a                	mv	s2,a0
     c04:	8e26                	mv	t3,s1
     c06:	0286                	sll	t0,t0,0x1
     c08:	005483b3          	add	t2,s1,t0
     c0c:	c135                	beqz	a0,c70 <core_init_matrix+0xa0>
     c0e:	6ec1                	lui	t4,0x10
     c10:	00150313          	add	t1,a0,1
     c14:	00151413          	sll	s0,a0,0x1
     c18:	8f1e                	mv	t5,t2
     c1a:	4f81                	li	t6,0
     c1c:	4705                	li	a4,1
     c1e:	407e0e33          	sub	t3,t3,t2
     c22:	1efd                	add	t4,t4,-1 # ffff <_stack_len+0x7fff>
     c24:	89ba                	mv	s3,a4
     c26:	887a                	mv	a6,t5
     c28:	02e60633          	mul	a2,a2,a4
     c2c:	01071793          	sll	a5,a4,0x10
     c30:	83c1                	srl	a5,a5,0x10
     c32:	010e08b3          	add	a7,t3,a6
     c36:	0809                	add	a6,a6,2
     c38:	0705                	add	a4,a4,1
     c3a:	41f65593          	sra	a1,a2,0x1f
     c3e:	81c1                	srl	a1,a1,0x10
     c40:	962e                	add	a2,a2,a1
     c42:	01d67633          	and	a2,a2,t4
     c46:	8e0d                	sub	a2,a2,a1
     c48:	00c785b3          	add	a1,a5,a2
     c4c:	05c2                	sll	a1,a1,0x10
     c4e:	81c1                	srl	a1,a1,0x10
     c50:	97ae                	add	a5,a5,a1
     c52:	feb81f23          	sh	a1,-2(a6)
     c56:	0ff7f793          	zext.b	a5,a5
     c5a:	00f89023          	sh	a5,0(a7)
     c5e:	fc6715e3          	bne	a4,t1,c28 <core_init_matrix+0x58>
     c62:	0f85                	add	t6,t6,1
     c64:	01350733          	add	a4,a0,s3
     c68:	932a                	add	t1,t1,a0
     c6a:	9f22                	add	t5,t5,s0
     c6c:	faaf9ce3          	bne	t6,a0,c24 <core_init_matrix+0x54>
     c70:	005387b3          	add	a5,t2,t0
     c74:	17fd                	add	a5,a5,-1
     c76:	4432                	lw	s0,12(sp)
     c78:	9bf1                	and	a5,a5,-4
     c7a:	0791                	add	a5,a5,4
     c7c:	c2c4                	sw	s1,4(a3)
     c7e:	0126a023          	sw	s2,0(a3)
     c82:	0076a423          	sw	t2,8(a3)
     c86:	c6dc                	sw	a5,12(a3)
     c88:	44a2                	lw	s1,8(sp)
     c8a:	4912                	lw	s2,4(sp)
     c8c:	4982                	lw	s3,0(sp)
     c8e:	0141                	add	sp,sp,16
     c90:	8082                	ret
     c92:	15fd                	add	a1,a1,-1
     c94:	ffc5f393          	and	t2,a1,-4
     c98:	00438e13          	add	t3,t2,4 # ffff8004 <_stack_start+0xffef8004>
     c9c:	84f2                	mv	s1,t3
     c9e:	0399                	add	t2,t2,6
     ca0:	597d                	li	s2,-1
     ca2:	4289                	li	t0,2
     ca4:	557d                	li	a0,-1
     ca6:	b7a5                	j	c0e <core_init_matrix+0x3e>

00000ca8 <matrix_sum>:
     ca8:	8eaa                	mv	t4,a0
     caa:	cd31                	beqz	a0,d06 <matrix_sum+0x5e>
     cac:	00251f93          	sll	t6,a0,0x2
     cb0:	40a00f33          	neg	t5,a0
     cb4:	01f588b3          	add	a7,a1,t6
     cb8:	4e01                	li	t3,0
     cba:	4501                	li	a0,0
     cbc:	4701                	li	a4,0
     cbe:	4581                	li	a1,0
     cc0:	0f0e                	sll	t5,t5,0x3
     cc2:	41f88333          	sub	t1,a7,t6
     cc6:	879a                	mv	a5,t1
     cc8:	a031                	j	cd4 <matrix_sum+0x2c>
     cca:	0542                	sll	a0,a0,0x10
     ccc:	0791                	add	a5,a5,4
     cce:	8541                	sra	a0,a0,0x10
     cd0:	02f88563          	beq	a7,a5,cfa <matrix_sum+0x52>
     cd4:	86ba                	mv	a3,a4
     cd6:	4398                	lw	a4,0(a5)
     cd8:	0542                	sll	a0,a0,0x10
     cda:	8141                	srl	a0,a0,0x10
     cdc:	00e6a6b3          	slt	a3,a3,a4
     ce0:	95ba                	add	a1,a1,a4
     ce2:	00a50813          	add	a6,a0,10
     ce6:	9536                	add	a0,a0,a3
     ce8:	feb651e3          	bge	a2,a1,cca <matrix_sum+0x22>
     cec:	01081513          	sll	a0,a6,0x10
     cf0:	0791                	add	a5,a5,4
     cf2:	8541                	sra	a0,a0,0x10
     cf4:	4581                	li	a1,0
     cf6:	fcf89fe3          	bne	a7,a5,cd4 <matrix_sum+0x2c>
     cfa:	0e05                	add	t3,t3,1
     cfc:	41e308b3          	sub	a7,t1,t5
     d00:	fdce91e3          	bne	t4,t3,cc2 <matrix_sum+0x1a>
     d04:	8082                	ret
     d06:	4501                	li	a0,0
     d08:	8082                	ret

00000d0a <matrix_mul_const>:
     d0a:	c121                	beqz	a0,d4a <matrix_mul_const+0x40>
     d0c:	00151f13          	sll	t5,a0,0x1
     d10:	40a00eb3          	neg	t4,a0
     d14:	01e60833          	add	a6,a2,t5
     d18:	4301                	li	t1,0
     d1a:	4e01                	li	t3,0
     d1c:	0e8a                	sll	t4,t4,0x2
     d1e:	41e808b3          	sub	a7,a6,t5
     d22:	00231613          	sll	a2,t1,0x2
     d26:	962e                	add	a2,a2,a1
     d28:	87c6                	mv	a5,a7
     d2a:	00079703          	lh	a4,0(a5)
     d2e:	0611                	add	a2,a2,4
     d30:	0789                	add	a5,a5,2
     d32:	02d70733          	mul	a4,a4,a3
     d36:	fee62e23          	sw	a4,-4(a2)
     d3a:	fef818e3          	bne	a6,a5,d2a <matrix_mul_const+0x20>
     d3e:	0e05                	add	t3,t3,1
     d40:	932a                	add	t1,t1,a0
     d42:	41d88833          	sub	a6,a7,t4
     d46:	fdc51ce3          	bne	a0,t3,d1e <matrix_mul_const+0x14>
     d4a:	8082                	ret

00000d4c <matrix_add_const>:
     d4c:	c91d                	beqz	a0,d82 <matrix_add_const+0x36>
     d4e:	00151313          	sll	t1,a0,0x1
     d52:	40a008b3          	neg	a7,a0
     d56:	0642                	sll	a2,a2,0x10
     d58:	8241                	srl	a2,a2,0x10
     d5a:	006586b3          	add	a3,a1,t1
     d5e:	4801                	li	a6,0
     d60:	088a                	sll	a7,a7,0x2
     d62:	406685b3          	sub	a1,a3,t1
     d66:	87ae                	mv	a5,a1
     d68:	0007d703          	lhu	a4,0(a5)
     d6c:	0789                	add	a5,a5,2
     d6e:	9732                	add	a4,a4,a2
     d70:	fee79f23          	sh	a4,-2(a5)
     d74:	fef69ae3          	bne	a3,a5,d68 <matrix_add_const+0x1c>
     d78:	0805                	add	a6,a6,1
     d7a:	411586b3          	sub	a3,a1,a7
     d7e:	ff0512e3          	bne	a0,a6,d62 <matrix_add_const+0x16>
     d82:	8082                	ret

00000d84 <matrix_mul_vect>:
     d84:	cd15                	beqz	a0,dc0 <matrix_mul_vect+0x3c>
     d86:	00251f13          	sll	t5,a0,0x2
     d8a:	00151e13          	sll	t3,a0,0x1
     d8e:	9f2e                	add	t5,t5,a1
     d90:	9e36                	add	t3,t3,a3
     d92:	4e81                	li	t4,0
     d94:	001e9813          	sll	a6,t4,0x1
     d98:	9832                	add	a6,a6,a2
     d9a:	87b6                	mv	a5,a3
     d9c:	4881                	li	a7,0
     d9e:	00081703          	lh	a4,0(a6)
     da2:	00079303          	lh	t1,0(a5)
     da6:	0789                	add	a5,a5,2
     da8:	0809                	add	a6,a6,2
     daa:	02670733          	mul	a4,a4,t1
     dae:	98ba                	add	a7,a7,a4
     db0:	fefe17e3          	bne	t3,a5,d9e <matrix_mul_vect+0x1a>
     db4:	0115a023          	sw	a7,0(a1)
     db8:	0591                	add	a1,a1,4
     dba:	9eaa                	add	t4,t4,a0
     dbc:	fcbf1ce3          	bne	t5,a1,d94 <matrix_mul_vect+0x10>
     dc0:	8082                	ret

00000dc2 <matrix_mul_matrix>:
     dc2:	c52d                	beqz	a0,e2c <matrix_mul_matrix+0x6a>
     dc4:	1141                	add	sp,sp,-16
     dc6:	8f2a                	mv	t5,a0
     dc8:	0506                	sll	a0,a0,0x1
     dca:	c622                	sw	s0,12(sp)
     dcc:	83ae                	mv	t2,a1
     dce:	8436                	mv	s0,a3
     dd0:	8eb2                	mv	t4,a2
     dd2:	00a60833          	add	a6,a2,a0
     dd6:	4f81                	li	t6,0
     dd8:	4281                	li	t0,0
     dda:	002f9893          	sll	a7,t6,0x2
     dde:	989e                	add	a7,a7,t2
     de0:	8322                	mv	t1,s0
     de2:	4e01                	li	t3,0
     de4:	869a                	mv	a3,t1
     de6:	87f6                	mv	a5,t4
     de8:	4601                	li	a2,0
     dea:	00079703          	lh	a4,0(a5)
     dee:	00069583          	lh	a1,0(a3)
     df2:	0789                	add	a5,a5,2
     df4:	96aa                	add	a3,a3,a0
     df6:	02b70733          	mul	a4,a4,a1
     dfa:	963a                	add	a2,a2,a4
     dfc:	fef817e3          	bne	a6,a5,dea <matrix_mul_matrix+0x28>
     e00:	00c8a023          	sw	a2,0(a7)
     e04:	001e0793          	add	a5,t3,1
     e08:	0891                	add	a7,a7,4
     e0a:	0309                	add	t1,t1,2
     e0c:	00ff0463          	beq	t5,a5,e14 <matrix_mul_matrix+0x52>
     e10:	8e3e                	mv	t3,a5
     e12:	bfc9                	j	de4 <matrix_mul_matrix+0x22>
     e14:	00128793          	add	a5,t0,1
     e18:	9eaa                	add	t4,t4,a0
     e1a:	9ffa                	add	t6,t6,t5
     e1c:	982a                	add	a6,a6,a0
     e1e:	01c28463          	beq	t0,t3,e26 <matrix_mul_matrix+0x64>
     e22:	82be                	mv	t0,a5
     e24:	bf5d                	j	dda <matrix_mul_matrix+0x18>
     e26:	4432                	lw	s0,12(sp)
     e28:	0141                	add	sp,sp,16
     e2a:	8082                	ret
     e2c:	8082                	ret

00000e2e <matrix_mul_matrix_bitextract>:
     e2e:	cd2d                	beqz	a0,ea8 <matrix_mul_matrix_bitextract+0x7a>
     e30:	1141                	add	sp,sp,-16
     e32:	8f2a                	mv	t5,a0
     e34:	0506                	sll	a0,a0,0x1
     e36:	c622                	sw	s0,12(sp)
     e38:	83ae                	mv	t2,a1
     e3a:	8436                	mv	s0,a3
     e3c:	8eb2                	mv	t4,a2
     e3e:	00a60833          	add	a6,a2,a0
     e42:	4f81                	li	t6,0
     e44:	4281                	li	t0,0
     e46:	002f9893          	sll	a7,t6,0x2
     e4a:	989e                	add	a7,a7,t2
     e4c:	8322                	mv	t1,s0
     e4e:	4e01                	li	t3,0
     e50:	861a                	mv	a2,t1
     e52:	86f6                	mv	a3,t4
     e54:	4581                	li	a1,0
     e56:	00061703          	lh	a4,0(a2)
     e5a:	00069783          	lh	a5,0(a3)
     e5e:	0689                	add	a3,a3,2
     e60:	962a                	add	a2,a2,a0
     e62:	02e787b3          	mul	a5,a5,a4
     e66:	4027d713          	sra	a4,a5,0x2
     e6a:	8795                	sra	a5,a5,0x5
     e6c:	8b3d                	and	a4,a4,15
     e6e:	07f7f793          	and	a5,a5,127
     e72:	02f707b3          	mul	a5,a4,a5
     e76:	95be                	add	a1,a1,a5
     e78:	fcd81fe3          	bne	a6,a3,e56 <matrix_mul_matrix_bitextract+0x28>
     e7c:	00b8a023          	sw	a1,0(a7)
     e80:	001e0793          	add	a5,t3,1
     e84:	0891                	add	a7,a7,4
     e86:	0309                	add	t1,t1,2
     e88:	00ff0463          	beq	t5,a5,e90 <matrix_mul_matrix_bitextract+0x62>
     e8c:	8e3e                	mv	t3,a5
     e8e:	b7c9                	j	e50 <matrix_mul_matrix_bitextract+0x22>
     e90:	00128793          	add	a5,t0,1
     e94:	9eaa                	add	t4,t4,a0
     e96:	9ffa                	add	t6,t6,t5
     e98:	982a                	add	a6,a6,a0
     e9a:	01c28463          	beq	t0,t3,ea2 <matrix_mul_matrix_bitextract+0x74>
     e9e:	82be                	mv	t0,a5
     ea0:	b75d                	j	e46 <matrix_mul_matrix_bitextract+0x18>
     ea2:	4432                	lw	s0,12(sp)
     ea4:	0141                	add	sp,sp,16
     ea6:	8082                	ret
     ea8:	8082                	ret

00000eaa <matrix_test>:
     eaa:	7139                	add	sp,sp,-64
     eac:	dc22                	sw	s0,56(sp)
     eae:	da26                	sw	s1,52(sp)
     eb0:	d05a                	sw	s6,32(sp)
     eb2:	de06                	sw	ra,60(sp)
     eb4:	d84a                	sw	s2,48(sp)
     eb6:	d64e                	sw	s3,44(sp)
     eb8:	d452                	sw	s4,40(sp)
     eba:	d256                	sw	s5,36(sp)
     ebc:	ce5e                	sw	s7,28(sp)
     ebe:	cc62                	sw	s8,24(sp)
     ec0:	ca66                	sw	s9,20(sp)
     ec2:	c86a                	sw	s10,16(sp)
     ec4:	c66e                	sw	s11,12(sp)
     ec6:	8b2e                	mv	s6,a1
     ec8:	8432                	mv	s0,a2
     eca:	84b6                	mv	s1,a3
     ecc:	24050163          	beqz	a0,110e <matrix_test+0x264>
     ed0:	00151f13          	sll	t5,a0,0x1
     ed4:	01e605b3          	add	a1,a2,t5
     ed8:	40a00cb3          	neg	s9,a0
     edc:	01071993          	sll	s3,a4,0x10
     ee0:	8daa                	mv	s11,a0
     ee2:	0109d993          	srl	s3,s3,0x10
     ee6:	862e                	mv	a2,a1
     ee8:	4801                	li	a6,0
     eea:	002c9893          	sll	a7,s9,0x2
     eee:	41e60333          	sub	t1,a2,t5
     ef2:	879a                	mv	a5,t1
     ef4:	0007d683          	lhu	a3,0(a5)
     ef8:	0789                	add	a5,a5,2
     efa:	96ce                	add	a3,a3,s3
     efc:	fed79f23          	sh	a3,-2(a5)
     f00:	fec79ae3          	bne	a5,a2,ef4 <matrix_test+0x4a>
     f04:	00180513          	add	a0,a6,1
     f08:	41130633          	sub	a2,t1,a7
     f0c:	00ad8463          	beq	s11,a0,f14 <matrix_test+0x6a>
     f10:	882a                	mv	a6,a0
     f12:	bff1                	j	eee <matrix_test+0x44>
     f14:	4e01                	li	t3,0
     f16:	4e81                	li	t4,0
     f18:	41e58333          	sub	t1,a1,t5
     f1c:	002e1613          	sll	a2,t3,0x2
     f20:	965a                	add	a2,a2,s6
     f22:	879a                	mv	a5,t1
     f24:	00079683          	lh	a3,0(a5)
     f28:	0611                	add	a2,a2,4
     f2a:	0789                	add	a5,a5,2
     f2c:	02e686b3          	mul	a3,a3,a4
     f30:	fed62e23          	sw	a3,-4(a2)
     f34:	fef598e3          	bne	a1,a5,f24 <matrix_test+0x7a>
     f38:	001e8793          	add	a5,t4,1
     f3c:	9e2a                	add	t3,t3,a0
     f3e:	411305b3          	sub	a1,t1,a7
     f42:	010e8463          	beq	t4,a6,f4a <matrix_test+0xa0>
     f46:	8ebe                	mv	t4,a5
     f48:	bfc1                	j	f18 <matrix_test+0x6e>
     f4a:	40a00e33          	neg	t3,a0
     f4e:	77fd                	lui	a5,0xfffff
     f50:	00f76933          	or	s2,a4,a5
     f54:	411b0333          	sub	t1,s6,a7
     f58:	4501                	li	a0,0
     f5a:	4701                	li	a4,0
     f5c:	4601                	li	a2,0
     f5e:	4f01                	li	t5,0
     f60:	0e0e                	sll	t3,t3,0x3
     f62:	01130eb3          	add	t4,t1,a7
     f66:	87f6                	mv	a5,t4
     f68:	a031                	j	f74 <matrix_test+0xca>
     f6a:	0542                	sll	a0,a0,0x10
     f6c:	0791                	add	a5,a5,4 # fffff004 <_stack_start+0xffeff004>
     f6e:	8541                	sra	a0,a0,0x10
     f70:	02678563          	beq	a5,t1,f9a <matrix_test+0xf0>
     f74:	86ba                	mv	a3,a4
     f76:	4398                	lw	a4,0(a5)
     f78:	0542                	sll	a0,a0,0x10
     f7a:	8141                	srl	a0,a0,0x10
     f7c:	00e6a6b3          	slt	a3,a3,a4
     f80:	963a                	add	a2,a2,a4
     f82:	00a50593          	add	a1,a0,10
     f86:	9536                	add	a0,a0,a3
     f88:	fec951e3          	bge	s2,a2,f6a <matrix_test+0xc0>
     f8c:	01059513          	sll	a0,a1,0x10
     f90:	0791                	add	a5,a5,4
     f92:	8541                	sra	a0,a0,0x10
     f94:	4601                	li	a2,0
     f96:	fc679fe3          	bne	a5,t1,f74 <matrix_test+0xca>
     f9a:	001f0793          	add	a5,t5,1
     f9e:	41ce8333          	sub	t1,t4,t3
     fa2:	01e80463          	beq	a6,t5,faa <matrix_test+0x100>
     fa6:	8f3e                	mv	t5,a5
     fa8:	bf6d                	j	f62 <matrix_test+0xb8>
     faa:	4581                	li	a1,0
     fac:	2fb9                	jal	170a <crc16>
     fae:	8622                	mv	a2,s0
     fb0:	8baa                	mv	s7,a0
     fb2:	86a6                	mv	a3,s1
     fb4:	856e                	mv	a0,s11
     fb6:	85da                	mv	a1,s6
     fb8:	002d9a13          	sll	s4,s11,0x2
     fbc:	33e1                	jal	d84 <matrix_mul_vect>
     fbe:	9a5a                	add	s4,s4,s6
     fc0:	002c9c13          	sll	s8,s9,0x2
     fc4:	8852                	mv	a6,s4
     fc6:	4501                	li	a0,0
     fc8:	4701                	li	a4,0
     fca:	4601                	li	a2,0
     fcc:	4a81                	li	s5,0
     fce:	0c8e                	sll	s9,s9,0x3
     fd0:	010c08b3          	add	a7,s8,a6
     fd4:	87c6                	mv	a5,a7
     fd6:	a031                	j	fe2 <matrix_test+0x138>
     fd8:	0542                	sll	a0,a0,0x10
     fda:	0791                	add	a5,a5,4
     fdc:	8541                	sra	a0,a0,0x10
     fde:	03078563          	beq	a5,a6,1008 <matrix_test+0x15e>
     fe2:	86ba                	mv	a3,a4
     fe4:	4398                	lw	a4,0(a5)
     fe6:	0542                	sll	a0,a0,0x10
     fe8:	8141                	srl	a0,a0,0x10
     fea:	00e6a6b3          	slt	a3,a3,a4
     fee:	963a                	add	a2,a2,a4
     ff0:	00a50593          	add	a1,a0,10
     ff4:	9536                	add	a0,a0,a3
     ff6:	fec951e3          	bge	s2,a2,fd8 <matrix_test+0x12e>
     ffa:	01059513          	sll	a0,a1,0x10
     ffe:	0791                	add	a5,a5,4
    1000:	8541                	sra	a0,a0,0x10
    1002:	4601                	li	a2,0
    1004:	fd079fe3          	bne	a5,a6,fe2 <matrix_test+0x138>
    1008:	001a8d13          	add	s10,s5,1
    100c:	41988833          	sub	a6,a7,s9
    1010:	01ad8463          	beq	s11,s10,1018 <matrix_test+0x16e>
    1014:	8aea                	mv	s5,s10
    1016:	bf6d                	j	fd0 <matrix_test+0x126>
    1018:	85de                	mv	a1,s7
    101a:	2dc5                	jal	170a <crc16>
    101c:	8622                	mv	a2,s0
    101e:	8baa                	mv	s7,a0
    1020:	86a6                	mv	a3,s1
    1022:	856a                	mv	a0,s10
    1024:	85da                	mv	a1,s6
    1026:	3b71                	jal	dc2 <matrix_mul_matrix>
    1028:	8852                	mv	a6,s4
    102a:	4501                	li	a0,0
    102c:	4701                	li	a4,0
    102e:	4601                	li	a2,0
    1030:	4301                	li	t1,0
    1032:	018808b3          	add	a7,a6,s8
    1036:	87c6                	mv	a5,a7
    1038:	a031                	j	1044 <matrix_test+0x19a>
    103a:	0542                	sll	a0,a0,0x10
    103c:	0791                	add	a5,a5,4
    103e:	8541                	sra	a0,a0,0x10
    1040:	02f80563          	beq	a6,a5,106a <matrix_test+0x1c0>
    1044:	86ba                	mv	a3,a4
    1046:	4398                	lw	a4,0(a5)
    1048:	0542                	sll	a0,a0,0x10
    104a:	8141                	srl	a0,a0,0x10
    104c:	00e6a6b3          	slt	a3,a3,a4
    1050:	963a                	add	a2,a2,a4
    1052:	00a50593          	add	a1,a0,10
    1056:	9536                	add	a0,a0,a3
    1058:	fec951e3          	bge	s2,a2,103a <matrix_test+0x190>
    105c:	01059513          	sll	a0,a1,0x10
    1060:	0791                	add	a5,a5,4
    1062:	8541                	sra	a0,a0,0x10
    1064:	4601                	li	a2,0
    1066:	fcf81fe3          	bne	a6,a5,1044 <matrix_test+0x19a>
    106a:	00130793          	add	a5,t1,1
    106e:	41988833          	sub	a6,a7,s9
    1072:	01530463          	beq	t1,s5,107a <matrix_test+0x1d0>
    1076:	833e                	mv	t1,a5
    1078:	bf6d                	j	1032 <matrix_test+0x188>
    107a:	85de                	mv	a1,s7
    107c:	2579                	jal	170a <crc16>
    107e:	87aa                	mv	a5,a0
    1080:	86a6                	mv	a3,s1
    1082:	8622                	mv	a2,s0
    1084:	856a                	mv	a0,s10
    1086:	85da                	mv	a1,s6
    1088:	84be                	mv	s1,a5
    108a:	3355                	jal	e2e <matrix_mul_matrix_bitextract>
    108c:	4501                	li	a0,0
    108e:	4701                	li	a4,0
    1090:	4601                	li	a2,0
    1092:	4881                	li	a7,0
    1094:	018a0833          	add	a6,s4,s8
    1098:	87c2                	mv	a5,a6
    109a:	a031                	j	10a6 <matrix_test+0x1fc>
    109c:	0542                	sll	a0,a0,0x10
    109e:	0791                	add	a5,a5,4
    10a0:	8541                	sra	a0,a0,0x10
    10a2:	02fa0563          	beq	s4,a5,10cc <matrix_test+0x222>
    10a6:	86ba                	mv	a3,a4
    10a8:	4398                	lw	a4,0(a5)
    10aa:	0542                	sll	a0,a0,0x10
    10ac:	8141                	srl	a0,a0,0x10
    10ae:	00e6a6b3          	slt	a3,a3,a4
    10b2:	963a                	add	a2,a2,a4
    10b4:	00a50593          	add	a1,a0,10
    10b8:	9536                	add	a0,a0,a3
    10ba:	fec951e3          	bge	s2,a2,109c <matrix_test+0x1f2>
    10be:	01059513          	sll	a0,a1,0x10
    10c2:	0791                	add	a5,a5,4
    10c4:	8541                	sra	a0,a0,0x10
    10c6:	4601                	li	a2,0
    10c8:	fcfa1fe3          	bne	s4,a5,10a6 <matrix_test+0x1fc>
    10cc:	00188793          	add	a5,a7,1
    10d0:	41980a33          	sub	s4,a6,s9
    10d4:	01588463          	beq	a7,s5,10dc <matrix_test+0x232>
    10d8:	88be                	mv	a7,a5
    10da:	bf6d                	j	1094 <matrix_test+0x1ea>
    10dc:	85a6                	mv	a1,s1
    10de:	2535                	jal	170a <crc16>
    10e0:	0d06                	sll	s10,s10,0x1
    10e2:	946a                	add	s0,s0,s10
    10e4:	4601                	li	a2,0
    10e6:	41a406b3          	sub	a3,s0,s10
    10ea:	87b6                	mv	a5,a3
    10ec:	0007d703          	lhu	a4,0(a5)
    10f0:	0789                	add	a5,a5,2
    10f2:	41370733          	sub	a4,a4,s3
    10f6:	fee79f23          	sh	a4,-2(a5)
    10fa:	fe8799e3          	bne	a5,s0,10ec <matrix_test+0x242>
    10fe:	00160793          	add	a5,a2,1
    1102:	41868433          	sub	s0,a3,s8
    1106:	05560263          	beq	a2,s5,114a <matrix_test+0x2a0>
    110a:	863e                	mv	a2,a5
    110c:	bfe9                	j	10e6 <matrix_test+0x23c>
    110e:	4581                	li	a1,0
    1110:	2bed                	jal	170a <crc16>
    1112:	8622                	mv	a2,s0
    1114:	892a                	mv	s2,a0
    1116:	86a6                	mv	a3,s1
    1118:	4501                	li	a0,0
    111a:	85da                	mv	a1,s6
    111c:	31a5                	jal	d84 <matrix_mul_vect>
    111e:	85ca                	mv	a1,s2
    1120:	4501                	li	a0,0
    1122:	23e5                	jal	170a <crc16>
    1124:	8622                	mv	a2,s0
    1126:	86a6                	mv	a3,s1
    1128:	892a                	mv	s2,a0
    112a:	85da                	mv	a1,s6
    112c:	4501                	li	a0,0
    112e:	3951                	jal	dc2 <matrix_mul_matrix>
    1130:	85ca                	mv	a1,s2
    1132:	4501                	li	a0,0
    1134:	2bd9                	jal	170a <crc16>
    1136:	87aa                	mv	a5,a0
    1138:	8622                	mv	a2,s0
    113a:	4501                	li	a0,0
    113c:	85da                	mv	a1,s6
    113e:	86a6                	mv	a3,s1
    1140:	843e                	mv	s0,a5
    1142:	31f5                	jal	e2e <matrix_mul_matrix_bitextract>
    1144:	85a2                	mv	a1,s0
    1146:	4501                	li	a0,0
    1148:	23c9                	jal	170a <crc16>
    114a:	50f2                	lw	ra,60(sp)
    114c:	5462                	lw	s0,56(sp)
    114e:	0542                	sll	a0,a0,0x10
    1150:	54d2                	lw	s1,52(sp)
    1152:	5942                	lw	s2,48(sp)
    1154:	59b2                	lw	s3,44(sp)
    1156:	5a22                	lw	s4,40(sp)
    1158:	5a92                	lw	s5,36(sp)
    115a:	5b02                	lw	s6,32(sp)
    115c:	4bf2                	lw	s7,28(sp)
    115e:	4c62                	lw	s8,24(sp)
    1160:	4cd2                	lw	s9,20(sp)
    1162:	4d42                	lw	s10,16(sp)
    1164:	4db2                	lw	s11,12(sp)
    1166:	8541                	sra	a0,a0,0x10
    1168:	6121                	add	sp,sp,64
    116a:	8082                	ret

0000116c <core_bench_matrix>:
    116c:	1141                	add	sp,sp,-16
    116e:	c422                	sw	s0,8(sp)
    1170:	4514                	lw	a3,8(a0)
    1172:	8432                	mv	s0,a2
    1174:	872e                	mv	a4,a1
    1176:	4150                	lw	a2,4(a0)
    1178:	454c                	lw	a1,12(a0)
    117a:	4108                	lw	a0,0(a0)
    117c:	c606                	sw	ra,12(sp)
    117e:	3335                	jal	eaa <matrix_test>
    1180:	85a2                	mv	a1,s0
    1182:	4422                	lw	s0,8(sp)
    1184:	40b2                	lw	ra,12(sp)
    1186:	0141                	add	sp,sp,16
    1188:	a349                	j	170a <crc16>

0000118a <core_init_state>:
    118a:	fff50813          	add	a6,a0,-1
    118e:	4785                	li	a5,1
    1190:	0d07f263          	bgeu	a5,a6,1254 <core_init_state+0xca>
    1194:	0585                	add	a1,a1,1
    1196:	05c2                	sll	a1,a1,0x10
    1198:	81c1                	srl	a1,a1,0x10
    119a:	1141                	add	sp,sp,-16
    119c:	0035d793          	srl	a5,a1,0x3
    11a0:	c622                	sw	s0,12(sp)
    11a2:	4e1d                	li	t3,7
    11a4:	0075f693          	and	a3,a1,7
    11a8:	4701                	li	a4,0
    11aa:	00001e97          	auipc	t4,0x1
    11ae:	e06e8e93          	add	t4,t4,-506 # 1fb0 <intpat>
    11b2:	4311                	li	t1,4
    11b4:	4885                	li	a7,1
    11b6:	02c00f13          	li	t5,44
    11ba:	8b8d                	and	a5,a5,3
    11bc:	05c68d63          	beq	a3,t3,1216 <core_init_state+0x8c>
    11c0:	08d36563          	bltu	t1,a3,124a <core_init_state+0xc0>
    11c4:	16f5                	add	a3,a3,-3
    11c6:	06c2                	sll	a3,a3,0x10
    11c8:	078a                	sll	a5,a5,0x2
    11ca:	82c1                	srl	a3,a3,0x10
    11cc:	97f6                	add	a5,a5,t4
    11ce:	06d8eb63          	bltu	a7,a3,1244 <core_init_state+0xba>
    11d2:	4b9c                	lw	a5,16(a5)
    11d4:	42a1                	li	t0,8
    11d6:	00170693          	add	a3,a4,1
    11da:	00568433          	add	s0,a3,t0
    11de:	05047663          	bgeu	s0,a6,122a <core_init_state+0xa0>
    11e2:	9732                	add	a4,a4,a2
    11e4:	86ba                	mv	a3,a4
    11e6:	005783b3          	add	t2,a5,t0
    11ea:	0007cf83          	lbu	t6,0(a5)
    11ee:	0785                	add	a5,a5,1
    11f0:	0685                	add	a3,a3,1
    11f2:	fff68fa3          	sb	t6,-1(a3)
    11f6:	fef39ae3          	bne	t2,a5,11ea <core_init_state+0x60>
    11fa:	0585                	add	a1,a1,1
    11fc:	05c2                	sll	a1,a1,0x10
    11fe:	9716                	add	a4,a4,t0
    1200:	81c1                	srl	a1,a1,0x10
    1202:	01e70023          	sb	t5,0(a4)
    1206:	0035d793          	srl	a5,a1,0x3
    120a:	0075f693          	and	a3,a1,7
    120e:	8722                	mv	a4,s0
    1210:	8b8d                	and	a5,a5,3
    1212:	fbc697e3          	bne	a3,t3,11c0 <core_init_state+0x36>
    1216:	078a                	sll	a5,a5,0x2
    1218:	42a1                	li	t0,8
    121a:	00170693          	add	a3,a4,1
    121e:	97f6                	add	a5,a5,t4
    1220:	00568433          	add	s0,a3,t0
    1224:	5b9c                	lw	a5,48(a5)
    1226:	fb046ee3          	bltu	s0,a6,11e2 <core_init_state+0x58>
    122a:	00a76463          	bltu	a4,a0,1232 <core_init_state+0xa8>
    122e:	a801                	j	123e <core_init_state+0xb4>
    1230:	0685                	add	a3,a3,1
    1232:	9732                	add	a4,a4,a2
    1234:	00070023          	sb	zero,0(a4)
    1238:	8736                	mv	a4,a3
    123a:	fea6ebe3          	bltu	a3,a0,1230 <core_init_state+0xa6>
    123e:	4432                	lw	s0,12(sp)
    1240:	0141                	add	sp,sp,16
    1242:	8082                	ret
    1244:	439c                	lw	a5,0(a5)
    1246:	4291                	li	t0,4
    1248:	b779                	j	11d6 <core_init_state+0x4c>
    124a:	078a                	sll	a5,a5,0x2
    124c:	97f6                	add	a5,a5,t4
    124e:	539c                	lw	a5,32(a5)
    1250:	42a1                	li	t0,8
    1252:	b751                	j	11d6 <core_init_state+0x4c>
    1254:	4701                	li	a4,0
    1256:	4685                	li	a3,1
    1258:	a011                	j	125c <core_init_state+0xd2>
    125a:	0685                	add	a3,a3,1
    125c:	9732                	add	a4,a4,a2
    125e:	00070023          	sb	zero,0(a4)
    1262:	8736                	mv	a4,a3
    1264:	fea6ebe3          	bltu	a3,a0,125a <core_init_state+0xd0>
    1268:	8082                	ret

0000126a <core_state_transition>:
    126a:	4118                	lw	a4,0(a0)
    126c:	862a                	mv	a2,a0
    126e:	00074683          	lbu	a3,0(a4)
    1272:	1c068563          	beqz	a3,143c <core_state_transition+0x1d2>
    1276:	02c00793          	li	a5,44
    127a:	4501                	li	a0,0
    127c:	16f68063          	beq	a3,a5,13dc <core_state_transition+0x172>
    1280:	fd068513          	add	a0,a3,-48
    1284:	0ff57513          	zext.b	a0,a0
    1288:	4825                	li	a6,9
    128a:	02a87863          	bgeu	a6,a0,12ba <core_state_transition+0x50>
    128e:	02d00513          	li	a0,45
    1292:	14a68e63          	beq	a3,a0,13ee <core_state_transition+0x184>
    1296:	02e00513          	li	a0,46
    129a:	06a68663          	beq	a3,a0,1306 <core_state_transition+0x9c>
    129e:	02b00513          	li	a0,43
    12a2:	14a68663          	beq	a3,a0,13ee <core_state_transition+0x184>
    12a6:	41d4                	lw	a3,4(a1)
    12a8:	419c                	lw	a5,0(a1)
    12aa:	0705                	add	a4,a4,1
    12ac:	0685                	add	a3,a3,1
    12ae:	0785                	add	a5,a5,1
    12b0:	c1d4                	sw	a3,4(a1)
    12b2:	c19c                	sw	a5,0(a1)
    12b4:	4505                	li	a0,1
    12b6:	c218                	sw	a4,0(a2)
    12b8:	8082                	ret
    12ba:	4188                	lw	a0,0(a1)
    12bc:	00170693          	add	a3,a4,1
    12c0:	0505                	add	a0,a0,1
    12c2:	c188                	sw	a0,0(a1)
    12c4:	00174703          	lbu	a4,1(a4)
    12c8:	16070463          	beqz	a4,1430 <core_state_transition+0x1c6>
    12cc:	10f70663          	beq	a4,a5,13d8 <core_state_transition+0x16e>
    12d0:	02e00793          	li	a5,46
    12d4:	0ef70e63          	beq	a4,a5,13d0 <core_state_transition+0x166>
    12d8:	fd070713          	add	a4,a4,-48
    12dc:	0ff77713          	zext.b	a4,a4
    12e0:	47a5                	li	a5,9
    12e2:	00e7ea63          	bltu	a5,a4,12f6 <core_state_transition+0x8c>
    12e6:	0016c703          	lbu	a4,1(a3)
    12ea:	0685                	add	a3,a3,1
    12ec:	14070263          	beqz	a4,1430 <core_state_transition+0x1c6>
    12f0:	02c00793          	li	a5,44
    12f4:	bfe1                	j	12cc <core_state_transition+0x62>
    12f6:	499c                	lw	a5,16(a1)
    12f8:	00168713          	add	a4,a3,1
    12fc:	4505                	li	a0,1
    12fe:	0785                	add	a5,a5,1
    1300:	c99c                	sw	a5,16(a1)
    1302:	c218                	sw	a4,0(a2)
    1304:	8082                	ret
    1306:	4188                	lw	a0,0(a1)
    1308:	00170693          	add	a3,a4,1
    130c:	0505                	add	a0,a0,1
    130e:	c188                	sw	a0,0(a1)
    1310:	00174703          	lbu	a4,1(a4)
    1314:	12070163          	beqz	a4,1436 <core_state_transition+0x1cc>
    1318:	14f70363          	beq	a4,a5,145e <core_state_transition+0x1f4>
    131c:	0df77793          	and	a5,a4,223
    1320:	04500513          	li	a0,69
    1324:	02a78063          	beq	a5,a0,1344 <core_state_transition+0xda>
    1328:	fd070713          	add	a4,a4,-48
    132c:	0ff77713          	zext.b	a4,a4
    1330:	47a5                	li	a5,9
    1332:	0ae7e763          	bltu	a5,a4,13e0 <core_state_transition+0x176>
    1336:	0016c703          	lbu	a4,1(a3)
    133a:	0685                	add	a3,a3,1
    133c:	cf6d                	beqz	a4,1436 <core_state_transition+0x1cc>
    133e:	02c00793          	li	a5,44
    1342:	bfd9                	j	1318 <core_state_transition+0xae>
    1344:	49dc                	lw	a5,20(a1)
    1346:	00168713          	add	a4,a3,1
    134a:	0785                	add	a5,a5,1
    134c:	c9dc                	sw	a5,20(a1)
    134e:	0016c783          	lbu	a5,1(a3)
    1352:	cbed                	beqz	a5,1444 <core_state_transition+0x1da>
    1354:	02c00513          	li	a0,44
    1358:	0ea78863          	beq	a5,a0,1448 <core_state_transition+0x1de>
    135c:	45d8                	lw	a4,12(a1)
    135e:	fd578793          	add	a5,a5,-43
    1362:	0fd7f793          	and	a5,a5,253
    1366:	0705                	add	a4,a4,1
    1368:	c5d8                	sw	a4,12(a1)
    136a:	c791                	beqz	a5,1376 <core_state_transition+0x10c>
    136c:	00268713          	add	a4,a3,2
    1370:	4505                	li	a0,1
    1372:	c218                	sw	a4,0(a2)
    1374:	8082                	ret
    1376:	0026c783          	lbu	a5,2(a3)
    137a:	00268713          	add	a4,a3,2
    137e:	c3e9                	beqz	a5,1440 <core_state_transition+0x1d6>
    1380:	0ca78763          	beq	a5,a0,144e <core_state_transition+0x1e4>
    1384:	4d88                	lw	a0,24(a1)
    1386:	fd078793          	add	a5,a5,-48
    138a:	0ff7f793          	zext.b	a5,a5
    138e:	0505                	add	a0,a0,1
    1390:	4825                	li	a6,9
    1392:	cd88                	sw	a0,24(a1)
    1394:	00f87763          	bgeu	a6,a5,13a2 <core_state_transition+0x138>
    1398:	00368713          	add	a4,a3,3
    139c:	4505                	li	a0,1
    139e:	c218                	sw	a4,0(a2)
    13a0:	8082                	ret
    13a2:	4525                	li	a0,9
    13a4:	00174683          	lbu	a3,1(a4)
    13a8:	883a                	mv	a6,a4
    13aa:	02c00893          	li	a7,44
    13ae:	fd068793          	add	a5,a3,-48
    13b2:	0705                	add	a4,a4,1
    13b4:	0ff7f793          	zext.b	a5,a5
    13b8:	c2cd                	beqz	a3,145a <core_state_transition+0x1f0>
    13ba:	09168d63          	beq	a3,a7,1454 <core_state_transition+0x1ea>
    13be:	fef573e3          	bgeu	a0,a5,13a4 <core_state_transition+0x13a>
    13c2:	41dc                	lw	a5,4(a1)
    13c4:	00280713          	add	a4,a6,2
    13c8:	4505                	li	a0,1
    13ca:	0785                	add	a5,a5,1
    13cc:	c1dc                	sw	a5,4(a1)
    13ce:	bf15                	j	1302 <core_state_transition+0x98>
    13d0:	499c                	lw	a5,16(a1)
    13d2:	0785                	add	a5,a5,1
    13d4:	c99c                	sw	a5,16(a1)
    13d6:	b785                	j	1336 <core_state_transition+0xcc>
    13d8:	8736                	mv	a4,a3
    13da:	4511                	li	a0,4
    13dc:	0705                	add	a4,a4,1
    13de:	b715                	j	1302 <core_state_transition+0x98>
    13e0:	49dc                	lw	a5,20(a1)
    13e2:	00168713          	add	a4,a3,1
    13e6:	4505                	li	a0,1
    13e8:	0785                	add	a5,a5,1
    13ea:	c9dc                	sw	a5,20(a1)
    13ec:	bf19                	j	1302 <core_state_transition+0x98>
    13ee:	4188                	lw	a0,0(a1)
    13f0:	00170693          	add	a3,a4,1
    13f4:	0505                	add	a0,a0,1
    13f6:	c188                	sw	a0,0(a1)
    13f8:	00174803          	lbu	a6,1(a4)
    13fc:	06080963          	beqz	a6,146e <core_state_transition+0x204>
    1400:	06f80363          	beq	a6,a5,1466 <core_state_transition+0x1fc>
    1404:	4598                	lw	a4,8(a1)
    1406:	fd080793          	add	a5,a6,-48
    140a:	0ff7f793          	zext.b	a5,a5
    140e:	4525                	li	a0,9
    1410:	0705                	add	a4,a4,1
    1412:	00f57b63          	bgeu	a0,a5,1428 <core_state_transition+0x1be>
    1416:	02e00793          	li	a5,46
    141a:	00f80963          	beq	a6,a5,142c <core_state_transition+0x1c2>
    141e:	c598                	sw	a4,8(a1)
    1420:	4505                	li	a0,1
    1422:	00168713          	add	a4,a3,1
    1426:	bdf1                	j	1302 <core_state_transition+0x98>
    1428:	c598                	sw	a4,8(a1)
    142a:	bd75                	j	12e6 <core_state_transition+0x7c>
    142c:	c598                	sw	a4,8(a1)
    142e:	b721                	j	1336 <core_state_transition+0xcc>
    1430:	8736                	mv	a4,a3
    1432:	4511                	li	a0,4
    1434:	b5f9                	j	1302 <core_state_transition+0x98>
    1436:	8736                	mv	a4,a3
    1438:	4515                	li	a0,5
    143a:	b5e1                	j	1302 <core_state_transition+0x98>
    143c:	4501                	li	a0,0
    143e:	b5d1                	j	1302 <core_state_transition+0x98>
    1440:	4519                	li	a0,6
    1442:	b5c1                	j	1302 <core_state_transition+0x98>
    1444:	450d                	li	a0,3
    1446:	bd75                	j	1302 <core_state_transition+0x98>
    1448:	450d                	li	a0,3
    144a:	0705                	add	a4,a4,1
    144c:	bd5d                	j	1302 <core_state_transition+0x98>
    144e:	4519                	li	a0,6
    1450:	0705                	add	a4,a4,1
    1452:	bd45                	j	1302 <core_state_transition+0x98>
    1454:	451d                	li	a0,7
    1456:	0705                	add	a4,a4,1
    1458:	b56d                	j	1302 <core_state_transition+0x98>
    145a:	451d                	li	a0,7
    145c:	b55d                	j	1302 <core_state_transition+0x98>
    145e:	8736                	mv	a4,a3
    1460:	4515                	li	a0,5
    1462:	0705                	add	a4,a4,1
    1464:	bd79                	j	1302 <core_state_transition+0x98>
    1466:	8736                	mv	a4,a3
    1468:	4509                	li	a0,2
    146a:	0705                	add	a4,a4,1
    146c:	bd59                	j	1302 <core_state_transition+0x98>
    146e:	8736                	mv	a4,a3
    1470:	4509                	li	a0,2
    1472:	bd41                	j	1302 <core_state_transition+0x98>

00001474 <core_bench_state>:
    1474:	7119                	add	sp,sp,-128
    1476:	daa6                	sw	s1,116(sp)
    1478:	d6ce                	sw	s3,108(sp)
    147a:	0804                	add	s1,sp,16
    147c:	03010993          	add	s3,sp,48
    1480:	dca2                	sw	s0,120(sp)
    1482:	d8ca                	sw	s2,112(sp)
    1484:	d4d2                	sw	s4,104(sp)
    1486:	d0da                	sw	s6,96(sp)
    1488:	cede                	sw	s7,92(sp)
    148a:	cce2                	sw	s8,88(sp)
    148c:	8b36                	mv	s6,a3
    148e:	8a3a                	mv	s4,a4
    1490:	893e                	mv	s2,a5
    1492:	de86                	sw	ra,124(sp)
    1494:	d2d6                	sw	s5,100(sp)
    1496:	842e                	mv	s0,a1
    1498:	8c2a                	mv	s8,a0
    149a:	8bb2                	mv	s7,a2
    149c:	c62e                	sw	a1,12(sp)
    149e:	0894                	add	a3,sp,80
    14a0:	8726                	mv	a4,s1
    14a2:	87ce                	mv	a5,s3
    14a4:	0007a023          	sw	zero,0(a5)
    14a8:	00072023          	sw	zero,0(a4)
    14ac:	0791                	add	a5,a5,4
    14ae:	0711                	add	a4,a4,4
    14b0:	fed79ae3          	bne	a5,a3,14a4 <core_bench_state+0x30>
    14b4:	00044783          	lbu	a5,0(s0)
    14b8:	00c10a93          	add	s5,sp,12
    14bc:	c7f1                	beqz	a5,1588 <core_bench_state+0x114>
    14be:	180c                	add	a1,sp,48
    14c0:	8556                	mv	a0,s5
    14c2:	3365                	jal	126a <core_state_transition>
    14c4:	00251813          	sll	a6,a0,0x2
    14c8:	05080793          	add	a5,a6,80
    14cc:	00278833          	add	a6,a5,sp
    14d0:	4732                	lw	a4,12(sp)
    14d2:	fc082783          	lw	a5,-64(a6)
    14d6:	00074703          	lbu	a4,0(a4)
    14da:	0785                	add	a5,a5,1
    14dc:	fcf82023          	sw	a5,-64(a6)
    14e0:	ff79                	bnez	a4,14be <core_bench_state+0x4a>
    14e2:	c622                	sw	s0,12(sp)
    14e4:	9c22                	add	s8,s8,s0
    14e6:	03847563          	bgeu	s0,s8,1510 <core_bench_state+0x9c>
    14ea:	87a2                	mv	a5,s0
    14ec:	02c00613          	li	a2,44
    14f0:	0007c703          	lbu	a4,0(a5)
    14f4:	017746b3          	xor	a3,a4,s7
    14f8:	00c70463          	beq	a4,a2,1500 <core_bench_state+0x8c>
    14fc:	00d78023          	sb	a3,0(a5)
    1500:	97d2                	add	a5,a5,s4
    1502:	ff87e7e3          	bltu	a5,s8,14f0 <core_bench_state+0x7c>
    1506:	00044783          	lbu	a5,0(s0)
    150a:	00c10a93          	add	s5,sp,12
    150e:	c39d                	beqz	a5,1534 <core_bench_state+0xc0>
    1510:	180c                	add	a1,sp,48
    1512:	8556                	mv	a0,s5
    1514:	3b99                	jal	126a <core_state_transition>
    1516:	00251613          	sll	a2,a0,0x2
    151a:	05060793          	add	a5,a2,80
    151e:	00278633          	add	a2,a5,sp
    1522:	4732                	lw	a4,12(sp)
    1524:	fc062783          	lw	a5,-64(a2)
    1528:	00074703          	lbu	a4,0(a4)
    152c:	0785                	add	a5,a5,1
    152e:	fcf62023          	sw	a5,-64(a2)
    1532:	ff79                	bnez	a4,1510 <core_bench_state+0x9c>
    1534:	c622                	sw	s0,12(sp)
    1536:	02c00693          	li	a3,44
    153a:	01847d63          	bgeu	s0,s8,1554 <core_bench_state+0xe0>
    153e:	00044783          	lbu	a5,0(s0)
    1542:	0167c733          	xor	a4,a5,s6
    1546:	00d78463          	beq	a5,a3,154e <core_bench_state+0xda>
    154a:	00e40023          	sb	a4,0(s0)
    154e:	9452                	add	s0,s0,s4
    1550:	ff8467e3          	bltu	s0,s8,153e <core_bench_state+0xca>
    1554:	02048413          	add	s0,s1,32
    1558:	4088                	lw	a0,0(s1)
    155a:	85ca                	mv	a1,s2
    155c:	0491                	add	s1,s1,4
    155e:	28fd                	jal	165c <crcu32>
    1560:	85aa                	mv	a1,a0
    1562:	0009a503          	lw	a0,0(s3)
    1566:	0991                	add	s3,s3,4
    1568:	28d5                	jal	165c <crcu32>
    156a:	892a                	mv	s2,a0
    156c:	fe9416e3          	bne	s0,s1,1558 <core_bench_state+0xe4>
    1570:	50f6                	lw	ra,124(sp)
    1572:	5466                	lw	s0,120(sp)
    1574:	54d6                	lw	s1,116(sp)
    1576:	5946                	lw	s2,112(sp)
    1578:	59b6                	lw	s3,108(sp)
    157a:	5a26                	lw	s4,104(sp)
    157c:	5a96                	lw	s5,100(sp)
    157e:	5b06                	lw	s6,96(sp)
    1580:	4bf6                	lw	s7,92(sp)
    1582:	4c66                	lw	s8,88(sp)
    1584:	6109                	add	sp,sp,128
    1586:	8082                	ret
    1588:	9c22                	add	s8,s8,s0
    158a:	f78460e3          	bltu	s0,s8,14ea <core_bench_state+0x76>
    158e:	b7d9                	j	1554 <core_bench_state+0xe0>

00001590 <get_seed_32>:
    1590:	4795                	li	a5,5
    1592:	04a7e463          	bltu	a5,a0,15da <get_seed_32+0x4a>
    1596:	00001717          	auipc	a4,0x1
    159a:	a5a70713          	add	a4,a4,-1446 # 1ff0 <errpat+0x10>
    159e:	050a                	sll	a0,a0,0x2
    15a0:	953a                	add	a0,a0,a4
    15a2:	411c                	lw	a5,0(a0)
    15a4:	97ba                	add	a5,a5,a4
    15a6:	8782                	jr	a5
    15a8:	00001517          	auipc	a0,0x1
    15ac:	03052503          	lw	a0,48(a0) # 25d8 <seed5_volatile>
    15b0:	8082                	ret
    15b2:	00001517          	auipc	a0,0x1
    15b6:	02e52503          	lw	a0,46(a0) # 25e0 <seed1_volatile>
    15ba:	8082                	ret
    15bc:	00001517          	auipc	a0,0x1
    15c0:	02052503          	lw	a0,32(a0) # 25dc <seed2_volatile>
    15c4:	8082                	ret
    15c6:	00001517          	auipc	a0,0x1
    15ca:	fe652503          	lw	a0,-26(a0) # 25ac <seed3_volatile>
    15ce:	8082                	ret
    15d0:	00001517          	auipc	a0,0x1
    15d4:	fd852503          	lw	a0,-40(a0) # 25a8 <seed4_volatile>
    15d8:	8082                	ret
    15da:	4501                	li	a0,0
    15dc:	8082                	ret

000015de <crcu8>:
    15de:	86aa                	mv	a3,a0
    15e0:	852e                	mv	a0,a1
    15e2:	75e9                	lui	a1,0xffffa
    15e4:	47a1                	li	a5,8
    15e6:	0585                	add	a1,a1,1 # ffffa001 <_stack_start+0xffefa001>
    15e8:	00a6c733          	xor	a4,a3,a0
    15ec:	17fd                	add	a5,a5,-1
    15ee:	8105                	srl	a0,a0,0x1
    15f0:	8b05                	and	a4,a4,1
    15f2:	0ff7f793          	zext.b	a5,a5
    15f6:	00b54633          	xor	a2,a0,a1
    15fa:	8285                	srl	a3,a3,0x1
    15fc:	c701                	beqz	a4,1604 <crcu8+0x26>
    15fe:	01061513          	sll	a0,a2,0x10
    1602:	8141                	srl	a0,a0,0x10
    1604:	f3f5                	bnez	a5,15e8 <crcu8+0xa>
    1606:	8082                	ret

00001608 <crcu16>:
    1608:	86aa                	mv	a3,a0
    160a:	7869                	lui	a6,0xffffa
    160c:	852e                	mv	a0,a1
    160e:	0ff6f613          	zext.b	a2,a3
    1612:	47a1                	li	a5,8
    1614:	0805                	add	a6,a6,1 # ffffa001 <_stack_start+0xffefa001>
    1616:	00a64733          	xor	a4,a2,a0
    161a:	17fd                	add	a5,a5,-1
    161c:	8105                	srl	a0,a0,0x1
    161e:	8b05                	and	a4,a4,1
    1620:	0ff7f793          	zext.b	a5,a5
    1624:	010545b3          	xor	a1,a0,a6
    1628:	8205                	srl	a2,a2,0x1
    162a:	c701                	beqz	a4,1632 <crcu16+0x2a>
    162c:	01059513          	sll	a0,a1,0x10
    1630:	8141                	srl	a0,a0,0x10
    1632:	f3f5                	bnez	a5,1616 <crcu16+0xe>
    1634:	75e9                	lui	a1,0xffffa
    1636:	82a1                	srl	a3,a3,0x8
    1638:	47a1                	li	a5,8
    163a:	0585                	add	a1,a1,1 # ffffa001 <_stack_start+0xffefa001>
    163c:	00a6c733          	xor	a4,a3,a0
    1640:	17fd                	add	a5,a5,-1
    1642:	8105                	srl	a0,a0,0x1
    1644:	8b05                	and	a4,a4,1
    1646:	0ff7f793          	zext.b	a5,a5
    164a:	00b54633          	xor	a2,a0,a1
    164e:	8285                	srl	a3,a3,0x1
    1650:	c701                	beqz	a4,1658 <crcu16+0x50>
    1652:	01061513          	sll	a0,a2,0x10
    1656:	8141                	srl	a0,a0,0x10
    1658:	f3f5                	bnez	a5,163c <crcu16+0x34>
    165a:	8082                	ret

0000165c <crcu32>:
    165c:	872a                	mv	a4,a0
    165e:	01071613          	sll	a2,a4,0x10
    1662:	78e9                	lui	a7,0xffffa
    1664:	852e                	mv	a0,a1
    1666:	8241                	srl	a2,a2,0x10
    1668:	0ff77593          	zext.b	a1,a4
    166c:	47a1                	li	a5,8
    166e:	0885                	add	a7,a7,1 # ffffa001 <_stack_start+0xffefa001>
    1670:	00a5c6b3          	xor	a3,a1,a0
    1674:	17fd                	add	a5,a5,-1
    1676:	8105                	srl	a0,a0,0x1
    1678:	8a85                	and	a3,a3,1
    167a:	0ff7f793          	zext.b	a5,a5
    167e:	01154833          	xor	a6,a0,a7
    1682:	8185                	srl	a1,a1,0x1
    1684:	c681                	beqz	a3,168c <crcu32+0x30>
    1686:	01081513          	sll	a0,a6,0x10
    168a:	8141                	srl	a0,a0,0x10
    168c:	f3f5                	bnez	a5,1670 <crcu32+0x14>
    168e:	7869                	lui	a6,0xffffa
    1690:	8221                	srl	a2,a2,0x8
    1692:	47a1                	li	a5,8
    1694:	0805                	add	a6,a6,1 # ffffa001 <_stack_start+0xffefa001>
    1696:	00a646b3          	xor	a3,a2,a0
    169a:	17fd                	add	a5,a5,-1
    169c:	8105                	srl	a0,a0,0x1
    169e:	8a85                	and	a3,a3,1
    16a0:	0ff7f793          	zext.b	a5,a5
    16a4:	010545b3          	xor	a1,a0,a6
    16a8:	8205                	srl	a2,a2,0x1
    16aa:	c681                	beqz	a3,16b2 <crcu32+0x56>
    16ac:	01059513          	sll	a0,a1,0x10
    16b0:	8141                	srl	a0,a0,0x10
    16b2:	f3f5                	bnez	a5,1696 <crcu32+0x3a>
    16b4:	01075613          	srl	a2,a4,0x10
    16b8:	7869                	lui	a6,0xffffa
    16ba:	8732                	mv	a4,a2
    16bc:	47a1                	li	a5,8
    16be:	0ff67613          	zext.b	a2,a2
    16c2:	0805                	add	a6,a6,1 # ffffa001 <_stack_start+0xffefa001>
    16c4:	00a646b3          	xor	a3,a2,a0
    16c8:	17fd                	add	a5,a5,-1
    16ca:	8105                	srl	a0,a0,0x1
    16cc:	8a85                	and	a3,a3,1
    16ce:	0ff7f793          	zext.b	a5,a5
    16d2:	010545b3          	xor	a1,a0,a6
    16d6:	8205                	srl	a2,a2,0x1
    16d8:	c681                	beqz	a3,16e0 <crcu32+0x84>
    16da:	01059513          	sll	a0,a1,0x10
    16de:	8141                	srl	a0,a0,0x10
    16e0:	f3f5                	bnez	a5,16c4 <crcu32+0x68>
    16e2:	75e9                	lui	a1,0xffffa
    16e4:	8321                	srl	a4,a4,0x8
    16e6:	47a1                	li	a5,8
    16e8:	0585                	add	a1,a1,1 # ffffa001 <_stack_start+0xffefa001>
    16ea:	00a746b3          	xor	a3,a4,a0
    16ee:	17fd                	add	a5,a5,-1
    16f0:	8105                	srl	a0,a0,0x1
    16f2:	8a85                	and	a3,a3,1
    16f4:	0ff7f793          	zext.b	a5,a5
    16f8:	00b54633          	xor	a2,a0,a1
    16fc:	8305                	srl	a4,a4,0x1
    16fe:	c681                	beqz	a3,1706 <crcu32+0xaa>
    1700:	01061513          	sll	a0,a2,0x10
    1704:	8141                	srl	a0,a0,0x10
    1706:	f3f5                	bnez	a5,16ea <crcu32+0x8e>
    1708:	8082                	ret

0000170a <crc16>:
    170a:	86aa                	mv	a3,a0
    170c:	01069613          	sll	a2,a3,0x10
    1710:	7869                	lui	a6,0xffffa
    1712:	852e                	mv	a0,a1
    1714:	8241                	srl	a2,a2,0x10
    1716:	0ff6f693          	zext.b	a3,a3
    171a:	47a1                	li	a5,8
    171c:	0805                	add	a6,a6,1 # ffffa001 <_stack_start+0xffefa001>
    171e:	00a6c733          	xor	a4,a3,a0
    1722:	17fd                	add	a5,a5,-1
    1724:	8105                	srl	a0,a0,0x1
    1726:	8b05                	and	a4,a4,1
    1728:	0ff7f793          	zext.b	a5,a5
    172c:	010545b3          	xor	a1,a0,a6
    1730:	8285                	srl	a3,a3,0x1
    1732:	c701                	beqz	a4,173a <crc16+0x30>
    1734:	01059513          	sll	a0,a1,0x10
    1738:	8141                	srl	a0,a0,0x10
    173a:	f3f5                	bnez	a5,171e <crc16+0x14>
    173c:	75e9                	lui	a1,0xffffa
    173e:	00865693          	srl	a3,a2,0x8
    1742:	47a1                	li	a5,8
    1744:	0585                	add	a1,a1,1 # ffffa001 <_stack_start+0xffefa001>
    1746:	00a6c733          	xor	a4,a3,a0
    174a:	17fd                	add	a5,a5,-1
    174c:	8105                	srl	a0,a0,0x1
    174e:	8b05                	and	a4,a4,1
    1750:	0ff7f793          	zext.b	a5,a5
    1754:	00b54633          	xor	a2,a0,a1
    1758:	8285                	srl	a3,a3,0x1
    175a:	c701                	beqz	a4,1762 <crc16+0x58>
    175c:	01061513          	sll	a0,a2,0x10
    1760:	8141                	srl	a0,a0,0x10
    1762:	f3f5                	bnez	a5,1746 <crc16+0x3c>
    1764:	8082                	ret

00001766 <check_data_types>:
    1766:	4501                	li	a0,0
    1768:	8082                	ret

0000176a <start_time>:
    176a:	1141                	add	sp,sp,-16
    176c:	c606                	sw	ra,12(sp)
    176e:	893fe0ef          	jal	0 <get_cycle_value>
    1772:	40b2                	lw	ra,12(sp)
    1774:	00001797          	auipc	a5,0x1
    1778:	e6a7a023          	sw	a0,-416(a5) # 25d4 <t0>
    177c:	0141                	add	sp,sp,16
    177e:	8082                	ret

00001780 <stop_time>:
    1780:	1141                	add	sp,sp,-16
    1782:	c606                	sw	ra,12(sp)
    1784:	87dfe0ef          	jal	0 <get_cycle_value>
    1788:	40b2                	lw	ra,12(sp)
    178a:	00001797          	auipc	a5,0x1
    178e:	e4a7a323          	sw	a0,-442(a5) # 25d0 <t1>
    1792:	0141                	add	sp,sp,16
    1794:	8082                	ret

00001796 <get_time>:
    1796:	00001517          	auipc	a0,0x1
    179a:	e3a52503          	lw	a0,-454(a0) # 25d0 <t1>
    179e:	00001797          	auipc	a5,0x1
    17a2:	e367a783          	lw	a5,-458(a5) # 25d4 <t0>
    17a6:	8d1d                	sub	a0,a0,a5
    17a8:	8082                	ret

000017aa <time_in_secs>:
    17aa:	004c57b7          	lui	a5,0x4c5
    17ae:	b0078793          	add	a5,a5,-1280 # 4c4b00 <_stack_start+0x3c4b00>
    17b2:	02f55533          	divu	a0,a0,a5
    17b6:	1141                	add	sp,sp,-16
    17b8:	d20507d3          	fcvt.d.w	fa5,a0
    17bc:	a43e                	fsd	fa5,8(sp)
    17be:	4522                	lw	a0,8(sp)
    17c0:	45b2                	lw	a1,12(sp)
    17c2:	0141                	add	sp,sp,16
    17c4:	8082                	ret

000017c6 <portable_init>:
    17c6:	8082                	ret

000017c8 <portable_fini>:
    17c8:	8082                	ret

000017ca <main>:
    17ca:	7175                	add	sp,sp,-144
    17cc:	77fd                	lui	a5,0xfffff
    17ce:	6705                	lui	a4,0x1
    17d0:	c706                	sw	ra,140(sp)
    17d2:	c522                	sw	s0,136(sp)
    17d4:	c326                	sw	s1,132(sp)
    17d6:	c14a                	sw	s2,128(sp)
    17d8:	dece                	sw	s3,124(sp)
    17da:	dcd2                	sw	s4,120(sp)
    17dc:	dad6                	sw	s5,116(sp)
    17de:	d8da                	sw	s6,112(sp)
    17e0:	d6de                	sw	s7,108(sp)
    17e2:	d4e2                	sw	s8,104(sp)
    17e4:	d2e6                	sw	s9,100(sp)
    17e6:	d0ea                	sw	s10,96(sp)
    17e8:	ceee                	sw	s11,92(sp)
    17ea:	7dc78793          	add	a5,a5,2012 # fffff7dc <_stack_start+0xffeff7dc>
    17ee:	81010113          	add	sp,sp,-2032
    17f2:	83070713          	add	a4,a4,-2000 # 830 <core_list_mergesort+0x46>
    17f6:	973e                	add	a4,a4,a5
    17f8:	081c                	add	a5,sp,16
    17fa:	862e                	mv	a2,a1
    17fc:	ce2a                	sw	a0,28(sp)
    17fe:	00f705b3          	add	a1,a4,a5
    1802:	06e10513          	add	a0,sp,110
    1806:	37c1                	jal	17c6 <portable_init>
    1808:	4505                	li	a0,1
    180a:	3359                	jal	1590 <get_seed_32>
    180c:	87aa                	mv	a5,a0
    180e:	4509                	li	a0,2
    1810:	02f11623          	sh	a5,44(sp)
    1814:	3bb5                	jal	1590 <get_seed_32>
    1816:	87aa                	mv	a5,a0
    1818:	450d                	li	a0,3
    181a:	02f11723          	sh	a5,46(sp)
    181e:	3b8d                	jal	1590 <get_seed_32>
    1820:	87aa                	mv	a5,a0
    1822:	4511                	li	a0,4
    1824:	02f11823          	sh	a5,48(sp)
    1828:	33a5                	jal	1590 <get_seed_32>
    182a:	87aa                	mv	a5,a0
    182c:	4515                	li	a0,5
    182e:	c4be                	sw	a5,72(sp)
    1830:	3385                	jal	1590 <get_seed_32>
    1832:	e111                	bnez	a0,1836 <main+0x6c>
    1834:	451d                	li	a0,7
    1836:	6705                	lui	a4,0x1
    1838:	77fd                	lui	a5,0xfffff
    183a:	83070713          	add	a4,a4,-2000 # 830 <core_list_mergesort+0x46>
    183e:	973e                	add	a4,a4,a5
    1840:	081c                	add	a5,sp,16
    1842:	97ba                	add	a5,a5,a4
    1844:	c43e                	sw	a5,8(sp)
    1846:	7ec7a783          	lw	a5,2028(a5) # fffff7ec <_stack_start+0xffeff7ec>
    184a:	c6aa                	sw	a0,76(sp)
    184c:	5a079c63          	bnez	a5,1e04 <main+0x63a>
    1850:	47a2                	lw	a5,8(sp)
    1852:	7f079783          	lh	a5,2032(a5)
    1856:	5e078463          	beqz	a5,1e3e <main+0x674>
    185a:	6585                	lui	a1,0x1
    185c:	76fd                	lui	a3,0xfffff
    185e:	83058593          	add	a1,a1,-2000 # 830 <core_list_mergesort+0x46>
    1862:	95b6                	add	a1,a1,a3
    1864:	0814                	add	a3,sp,16
    1866:	96ae                	add	a3,a3,a1
    1868:	1890                	add	a2,sp,112
    186a:	00257793          	and	a5,a0,2
    186e:	00157713          	and	a4,a0,1
    1872:	00f037b3          	snez	a5,a5
    1876:	c436                	sw	a3,8(sp)
    1878:	7ec6aa23          	sw	a2,2036(a3) # fffff7f4 <_stack_start+0xffeff7f4>
    187c:	06011623          	sh	zero,108(sp)
    1880:	00457693          	and	a3,a0,4
    1884:	973e                	add	a4,a4,a5
    1886:	c681                	beqz	a3,188e <main+0xc4>
    1888:	0705                	add	a4,a4,1
    188a:	0742                	sll	a4,a4,0x10
    188c:	8341                	srl	a4,a4,0x10
    188e:	7d000693          	li	a3,2000
    1892:	02e6d6b3          	divu	a3,a3,a4
    1896:	77fd                	lui	a5,0xfffff
    1898:	6705                	lui	a4,0x1
    189a:	7ec78793          	add	a5,a5,2028 # fffff7ec <_stack_start+0xffeff7ec>
    189e:	83070713          	add	a4,a4,-2000 # 830 <core_list_mergesort+0x46>
    18a2:	973e                	add	a4,a4,a5
    18a4:	081c                	add	a5,sp,16
    18a6:	97ba                	add	a5,a5,a4
    18a8:	4801                	li	a6,0
    18aa:	4701                	li	a4,0
    18ac:	4305                	li	t1,1
    18ae:	488d                	li	a7,3
    18b0:	c2b6                	sw	a3,68(sp)
    18b2:	00e315b3          	sll	a1,t1,a4
    18b6:	8de9                	and	a1,a1,a0
    18b8:	0705                	add	a4,a4,1
    18ba:	52059c63          	bnez	a1,1df2 <main+0x628>
    18be:	0791                	add	a5,a5,4
    18c0:	ff1719e3          	bne	a4,a7,18b2 <main+0xe8>
    18c4:	6685                	lui	a3,0x1
    18c6:	777d                	lui	a4,0xfffff
    18c8:	47b6                	lw	a5,76(sp)
    18ca:	83068693          	add	a3,a3,-2000 # 830 <core_list_mergesort+0x46>
    18ce:	96ba                	add	a3,a3,a4
    18d0:	0818                	add	a4,sp,16
    18d2:	9736                	add	a4,a4,a3
    18d4:	c43a                	sw	a4,8(sp)
    18d6:	0017f713          	and	a4,a5,1
    18da:	cb19                	beqz	a4,18f0 <main+0x126>
    18dc:	47a2                	lw	a5,8(sp)
    18de:	4516                	lw	a0,68(sp)
    18e0:	7ec79603          	lh	a2,2028(a5)
    18e4:	7f87a583          	lw	a1,2040(a5)
    18e8:	9b0ff0ef          	jal	a98 <core_list_init>
    18ec:	47b6                	lw	a5,76(sp)
    18ee:	c8aa                	sw	a0,80(sp)
    18f0:	0027f713          	and	a4,a5,2
    18f4:	20071a63          	bnez	a4,1b08 <main+0x33e>
    18f8:	8b91                	and	a5,a5,4
    18fa:	cf99                	beqz	a5,1918 <main+0x14e>
    18fc:	6705                	lui	a4,0x1
    18fe:	77fd                	lui	a5,0xfffff
    1900:	83070713          	add	a4,a4,-2000 # 830 <core_list_mergesort+0x46>
    1904:	973e                	add	a4,a4,a5
    1906:	081c                	add	a5,sp,16
    1908:	97ba                	add	a5,a5,a4
    190a:	4606                	lw	a2,64(sp)
    190c:	7ec79583          	lh	a1,2028(a5) # fffff7ec <_stack_start+0xffeff7ec>
    1910:	4516                	lw	a0,68(sp)
    1912:	c43e                	sw	a5,8(sp)
    1914:	877ff0ef          	jal	118a <core_init_state>
    1918:	47a6                	lw	a5,72(sp)
    191a:	e3ad                	bnez	a5,197c <main+0x1b2>
    191c:	4785                	li	a5,1
    191e:	747d                	lui	s0,0xfffff
    1920:	c4be                	sw	a5,72(sp)
    1922:	6785                	lui	a5,0x1
    1924:	7ec40413          	add	s0,s0,2028 # fffff7ec <_stack_start+0xffeff7ec>
    1928:	83078793          	add	a5,a5,-2000 # 830 <core_list_mergesort+0x46>
    192c:	97a2                	add	a5,a5,s0
    192e:	0818                	add	a4,sp,16
    1930:	00e78433          	add	s0,a5,a4
    1934:	4726                	lw	a4,72(sp)
    1936:	00271793          	sll	a5,a4,0x2
    193a:	97ba                	add	a5,a5,a4
    193c:	0786                	sll	a5,a5,0x1
    193e:	c4be                	sw	a5,72(sp)
    1940:	352d                	jal	176a <start_time>
    1942:	8522                	mv	a0,s0
    1944:	c3ffe0ef          	jal	582 <iterate>
    1948:	3d25                	jal	1780 <stop_time>
    194a:	35b1                	jal	1796 <get_time>
    194c:	3db9                	jal	17aa <time_in_secs>
    194e:	00000797          	auipc	a5,0x0
    1952:	5d278793          	add	a5,a5,1490 # 1f20 <main+0x756>
    1956:	c42a                	sw	a0,8(sp)
    1958:	c62e                	sw	a1,12(sp)
    195a:	27a2                	fld	fa5,8(sp)
    195c:	2398                	fld	fa4,0(a5)
    195e:	a2e797d3          	flt.d	a5,fa5,fa4
    1962:	fbe9                	bnez	a5,1934 <main+0x16a>
    1964:	c2179753          	fcvt.wu.d	a4,fa5,rtz
    1968:	4c070963          	beqz	a4,1e3a <main+0x670>
    196c:	47a9                	li	a5,10
    196e:	02e7d7b3          	divu	a5,a5,a4
    1972:	4726                	lw	a4,72(sp)
    1974:	0785                	add	a5,a5,1
    1976:	02e787b3          	mul	a5,a5,a4
    197a:	c4be                	sw	a5,72(sp)
    197c:	33fd                	jal	176a <start_time>
    197e:	747d                	lui	s0,0xfffff
    1980:	6485                	lui	s1,0x1
    1982:	7ec40513          	add	a0,s0,2028 # fffff7ec <_stack_start+0xffeff7ec>
    1986:	83048793          	add	a5,s1,-2000 # 830 <core_list_mergesort+0x46>
    198a:	97aa                	add	a5,a5,a0
    198c:	0818                	add	a4,sp,16
    198e:	00e78533          	add	a0,a5,a4
    1992:	bf1fe0ef          	jal	582 <iterate>
    1996:	33ed                	jal	1780 <stop_time>
    1998:	3bfd                	jal	1796 <get_time>
    199a:	83048793          	add	a5,s1,-2000
    199e:	0818                	add	a4,sp,16
    19a0:	97a2                	add	a5,a5,s0
    19a2:	97ba                	add	a5,a5,a4
    19a4:	892a                	mv	s2,a0
    19a6:	7ec79503          	lh	a0,2028(a5)
    19aa:	4581                	li	a1,0
    19ac:	c43e                	sw	a5,8(sp)
    19ae:	3bb1                	jal	170a <crc16>
    19b0:	47a2                	lw	a5,8(sp)
    19b2:	85aa                	mv	a1,a0
    19b4:	7ee79503          	lh	a0,2030(a5)
    19b8:	3b89                	jal	170a <crc16>
    19ba:	47a2                	lw	a5,8(sp)
    19bc:	85aa                	mv	a1,a0
    19be:	7f079503          	lh	a0,2032(a5)
    19c2:	33a1                	jal	170a <crc16>
    19c4:	85aa                	mv	a1,a0
    19c6:	04411503          	lh	a0,68(sp)
    19ca:	3381                	jal	170a <crc16>
    19cc:	67a1                	lui	a5,0x8
    19ce:	b0578793          	add	a5,a5,-1275 # 7b05 <_bss_end+0x5521>
    19d2:	8a2a                	mv	s4,a0
    19d4:	50f50363          	beq	a0,a5,1eda <main+0x710>
    19d8:	16a7ee63          	bltu	a5,a0,1b54 <main+0x38a>
    19dc:	6789                	lui	a5,0x2
    19de:	8f278793          	add	a5,a5,-1806 # 18f2 <main+0x128>
    19e2:	50f50463          	beq	a0,a5,1eea <main+0x720>
    19e6:	6795                	lui	a5,0x5
    19e8:	eaf78793          	add	a5,a5,-337 # 4eaf <_bss_end+0x28cb>
    19ec:	50f51f63          	bne	a0,a5,1f0a <main+0x740>
    19f0:	00000517          	auipc	a0,0x0
    19f4:	6b850513          	add	a0,a0,1720 # 20a8 <_min_stack+0xa8>
    19f8:	861fe0ef          	jal	258 <printf>
    19fc:	4989                	li	s3,2
    19fe:	00001c17          	auipc	s8,0x1
    1a02:	ba6c0c13          	add	s8,s8,-1114 # 25a4 <default_num_contexts>
    1a06:	000c2783          	lw	a5,0(s8)
    1a0a:	16078763          	beqz	a5,1b78 <main+0x3ae>
    1a0e:	6705                	lui	a4,0x1
    1a10:	76fd                	lui	a3,0xfffff
    1a12:	83070713          	add	a4,a4,-2000 # 830 <core_list_mergesort+0x46>
    1a16:	9736                	add	a4,a4,a3
    1a18:	0814                	add	a3,sp,16
    1a1a:	00199793          	sll	a5,s3,0x1
    1a1e:	9736                	add	a4,a4,a3
    1a20:	00000d97          	auipc	s11,0x0
    1a24:	56cd8d93          	add	s11,s11,1388 # 1f8c <list_known_crc>
    1a28:	4a81                	li	s5,0
    1a2a:	4c81                	li	s9,0
    1a2c:	c43a                	sw	a4,8(sp)
    1a2e:	6d05                	lui	s10,0x1
    1a30:	9dbe                	add	s11,s11,a5
    1a32:	00000b97          	auipc	s7,0x0
    1a36:	706b8b93          	add	s7,s7,1798 # 2138 <_min_stack+0x138>
    1a3a:	00000b17          	auipc	s6,0x0
    1a3e:	72eb0b13          	add	s6,s6,1838 # 2168 <_min_stack+0x168>
    1a42:	a80d                	j	1a74 <main+0x2aa>
    1a44:	4722                	lw	a4,8(sp)
    1a46:	019407b3          	add	a5,s0,s9
    1a4a:	078a                	sll	a5,a5,0x2
    1a4c:	97ba                	add	a5,a5,a4
    1a4e:	97ea                	add	a5,a5,s10
    1a50:	82c7d783          	lhu	a5,-2004(a5)
    1a54:	0c85                	add	s9,s9,1
    1a56:	000c2683          	lw	a3,0(s8)
    1a5a:	97d6                	add	a5,a5,s5
    1a5c:	0cc2                	sll	s9,s9,0x10
    1a5e:	01079493          	sll	s1,a5,0x10
    1a62:	01079a93          	sll	s5,a5,0x10
    1a66:	010cdc93          	srl	s9,s9,0x10
    1a6a:	80c1                	srl	s1,s1,0x10
    1a6c:	410ada93          	sra	s5,s5,0x10
    1a70:	10dcf563          	bgeu	s9,a3,1b7a <main+0x3b0>
    1a74:	47a2                	lw	a5,8(sp)
    1a76:	004c9413          	sll	s0,s9,0x4
    1a7a:	019404b3          	add	s1,s0,s9
    1a7e:	048a                	sll	s1,s1,0x2
    1a80:	94be                	add	s1,s1,a5
    1a82:	94ea                	add	s1,s1,s10
    1a84:	80c4a783          	lw	a5,-2036(s1)
    1a88:	82049623          	sh	zero,-2004(s1)
    1a8c:	0017f693          	and	a3,a5,1
    1a90:	c295                	beqz	a3,1ab4 <main+0x2ea>
    1a92:	8264d603          	lhu	a2,-2010(s1)
    1a96:	000dd683          	lhu	a3,0(s11)
    1a9a:	00d60d63          	beq	a2,a3,1ab4 <main+0x2ea>
    1a9e:	85e6                	mv	a1,s9
    1aa0:	855e                	mv	a0,s7
    1aa2:	fb6fe0ef          	jal	258 <printf>
    1aa6:	82c4d683          	lhu	a3,-2004(s1)
    1aaa:	80c4a783          	lw	a5,-2036(s1)
    1aae:	0685                	add	a3,a3,1 # fffff001 <_stack_start+0xffeff001>
    1ab0:	82d49623          	sh	a3,-2004(s1)
    1ab4:	0027f693          	and	a3,a5,2
    1ab8:	ca85                	beqz	a3,1ae8 <main+0x31e>
    1aba:	4722                	lw	a4,8(sp)
    1abc:	019404b3          	add	s1,s0,s9
    1ac0:	048a                	sll	s1,s1,0x2
    1ac2:	94ba                	add	s1,s1,a4
    1ac4:	94ea                	add	s1,s1,s10
    1ac6:	8284d603          	lhu	a2,-2008(s1)
    1aca:	00cdd683          	lhu	a3,12(s11)
    1ace:	00d60d63          	beq	a2,a3,1ae8 <main+0x31e>
    1ad2:	85e6                	mv	a1,s9
    1ad4:	855a                	mv	a0,s6
    1ad6:	f82fe0ef          	jal	258 <printf>
    1ada:	82c4d683          	lhu	a3,-2004(s1)
    1ade:	80c4a783          	lw	a5,-2036(s1)
    1ae2:	0685                	add	a3,a3,1
    1ae4:	82d49623          	sh	a3,-2004(s1)
    1ae8:	8b91                	and	a5,a5,4
    1aea:	dfa9                	beqz	a5,1a44 <main+0x27a>
    1aec:	47a2                	lw	a5,8(sp)
    1aee:	9466                	add	s0,s0,s9
    1af0:	040a                	sll	s0,s0,0x2
    1af2:	943e                	add	s0,s0,a5
    1af4:	946a                	add	s0,s0,s10
    1af6:	82a45603          	lhu	a2,-2006(s0)
    1afa:	018dd683          	lhu	a3,24(s11)
    1afe:	02d61c63          	bne	a2,a3,1b36 <main+0x36c>
    1b02:	82c45783          	lhu	a5,-2004(s0)
    1b06:	b7b9                	j	1a54 <main+0x28a>
    1b08:	6705                	lui	a4,0x1
    1b0a:	77fd                	lui	a5,0xfffff
    1b0c:	83070713          	add	a4,a4,-2000 # 830 <core_list_mergesort+0x46>
    1b10:	973e                	add	a4,a4,a5
    1b12:	081c                	add	a5,sp,16
    1b14:	97ba                	add	a5,a5,a4
    1b16:	c43e                	sw	a5,8(sp)
    1b18:	4722                	lw	a4,8(sp)
    1b1a:	7ee79783          	lh	a5,2030(a5) # fffff7ee <_stack_start+0xffeff7ee>
    1b1e:	4516                	lw	a0,68(sp)
    1b20:	7ec71603          	lh	a2,2028(a4)
    1b24:	7fc72583          	lw	a1,2044(a4)
    1b28:	07c2                	sll	a5,a5,0x10
    1b2a:	8e5d                	or	a2,a2,a5
    1b2c:	08d4                	add	a3,sp,84
    1b2e:	8a2ff0ef          	jal	bd0 <core_init_matrix>
    1b32:	47b6                	lw	a5,76(sp)
    1b34:	b3d1                	j	18f8 <main+0x12e>
    1b36:	85e6                	mv	a1,s9
    1b38:	00000517          	auipc	a0,0x0
    1b3c:	66450513          	add	a0,a0,1636 # 219c <_min_stack+0x19c>
    1b40:	f18fe0ef          	jal	258 <printf>
    1b44:	82c45783          	lhu	a5,-2004(s0)
    1b48:	0785                	add	a5,a5,1
    1b4a:	07c2                	sll	a5,a5,0x10
    1b4c:	83c1                	srl	a5,a5,0x10
    1b4e:	82f41623          	sh	a5,-2004(s0)
    1b52:	b709                	j	1a54 <main+0x28a>
    1b54:	67a5                	lui	a5,0x9
    1b56:	a0278793          	add	a5,a5,-1534 # 8a02 <_stack_len+0xa02>
    1b5a:	3af50063          	beq	a0,a5,1efa <main+0x730>
    1b5e:	67bd                	lui	a5,0xf
    1b60:	9f578793          	add	a5,a5,-1547 # e9f5 <_stack_len+0x69f5>
    1b64:	3af51363          	bne	a0,a5,1f0a <main+0x740>
    1b68:	00000517          	auipc	a0,0x0
    1b6c:	57450513          	add	a0,a0,1396 # 20dc <_min_stack+0xdc>
    1b70:	ee8fe0ef          	jal	258 <printf>
    1b74:	498d                	li	s3,3
    1b76:	b561                	j	19fe <main+0x234>
    1b78:	4481                	li	s1,0
    1b7a:	36f5                	jal	1766 <check_data_types>
    1b7c:	4596                	lw	a1,68(sp)
    1b7e:	94aa                	add	s1,s1,a0
    1b80:	00000517          	auipc	a0,0x0
    1b84:	64c50513          	add	a0,a0,1612 # 21cc <_min_stack+0x1cc>
    1b88:	ed0fe0ef          	jal	258 <printf>
    1b8c:	85ca                	mv	a1,s2
    1b8e:	00000517          	auipc	a0,0x0
    1b92:	65650513          	add	a0,a0,1622 # 21e4 <_min_stack+0x1e4>
    1b96:	ec2fe0ef          	jal	258 <printf>
    1b9a:	854a                	mv	a0,s2
    1b9c:	3139                	jal	17aa <time_in_secs>
    1b9e:	862a                	mv	a2,a0
    1ba0:	86ae                	mv	a3,a1
    1ba2:	00000517          	auipc	a0,0x0
    1ba6:	65a50513          	add	a0,a0,1626 # 21fc <_min_stack+0x1fc>
    1baa:	eaefe0ef          	jal	258 <printf>
    1bae:	854a                	mv	a0,s2
    1bb0:	3eed                	jal	17aa <time_in_secs>
    1bb2:	c42a                	sw	a0,8(sp)
    1bb4:	c62e                	sw	a1,12(sp)
    1bb6:	d20007d3          	fcvt.d.w	fa5,zero
    1bba:	2722                	fld	fa4,8(sp)
    1bbc:	04c2                	sll	s1,s1,0x10
    1bbe:	80c1                	srl	s1,s1,0x10
    1bc0:	a2e797d3          	flt.d	a5,fa5,fa4
    1bc4:	cb95                	beqz	a5,1bf8 <main+0x42e>
    1bc6:	000c2703          	lw	a4,0(s8)
    1bca:	47a6                	lw	a5,72(sp)
    1bcc:	854a                	mv	a0,s2
    1bce:	02e787b3          	mul	a5,a5,a4
    1bd2:	d21787d3          	fcvt.d.wu	fa5,a5
    1bd6:	a83e                	fsd	fa5,16(sp)
    1bd8:	3ec9                	jal	17aa <time_in_secs>
    1bda:	c42a                	sw	a0,8(sp)
    1bdc:	c62e                	sw	a1,12(sp)
    1bde:	2722                	fld	fa4,8(sp)
    1be0:	27c2                	fld	fa5,16(sp)
    1be2:	00000517          	auipc	a0,0x0
    1be6:	63250513          	add	a0,a0,1586 # 2214 <_min_stack+0x214>
    1bea:	1ae7f7d3          	fdiv.d	fa5,fa5,fa4
    1bee:	a43e                	fsd	fa5,8(sp)
    1bf0:	4622                	lw	a2,8(sp)
    1bf2:	46b2                	lw	a3,12(sp)
    1bf4:	e64fe0ef          	jal	258 <printf>
    1bf8:	854a                	mv	a0,s2
    1bfa:	3e45                	jal	17aa <time_in_secs>
    1bfc:	c42a                	sw	a0,8(sp)
    1bfe:	c62e                	sw	a1,12(sp)
    1c00:	2722                	fld	fa4,8(sp)
    1c02:	00000797          	auipc	a5,0x0
    1c06:	3267b787          	fld	fa5,806(a5) # 1f28 <main+0x75e>
    1c0a:	a2f717d3          	flt.d	a5,fa4,fa5
    1c0e:	2a079a63          	bnez	a5,1ec2 <main+0x6f8>
    1c12:	000c2783          	lw	a5,0(s8)
    1c16:	45a6                	lw	a1,72(sp)
    1c18:	00000517          	auipc	a0,0x0
    1c1c:	65450513          	add	a0,a0,1620 # 226c <_min_stack+0x26c>
    1c20:	04c2                	sll	s1,s1,0x10
    1c22:	02f585b3          	mul	a1,a1,a5
    1c26:	84c1                	sra	s1,s1,0x10
    1c28:	e30fe0ef          	jal	258 <printf>
    1c2c:	00000597          	auipc	a1,0x0
    1c30:	65858593          	add	a1,a1,1624 # 2284 <_min_stack+0x284>
    1c34:	00000517          	auipc	a0,0x0
    1c38:	65c50513          	add	a0,a0,1628 # 2290 <_min_stack+0x290>
    1c3c:	e1cfe0ef          	jal	258 <printf>
    1c40:	00000597          	auipc	a1,0x0
    1c44:	66858593          	add	a1,a1,1640 # 22a8 <_min_stack+0x2a8>
    1c48:	00000517          	auipc	a0,0x0
    1c4c:	6e850513          	add	a0,a0,1768 # 2330 <_min_stack+0x330>
    1c50:	e08fe0ef          	jal	258 <printf>
    1c54:	00000597          	auipc	a1,0x0
    1c58:	6f458593          	add	a1,a1,1780 # 2348 <_min_stack+0x348>
    1c5c:	00000517          	auipc	a0,0x0
    1c60:	6f450513          	add	a0,a0,1780 # 2350 <_min_stack+0x350>
    1c64:	df4fe0ef          	jal	258 <printf>
    1c68:	85d2                	mv	a1,s4
    1c6a:	00000517          	auipc	a0,0x0
    1c6e:	6fe50513          	add	a0,a0,1790 # 2368 <_min_stack+0x368>
    1c72:	de6fe0ef          	jal	258 <printf>
    1c76:	47b6                	lw	a5,76(sp)
    1c78:	0017f713          	and	a4,a5,1
    1c7c:	c739                	beqz	a4,1cca <main+0x500>
    1c7e:	000c2703          	lw	a4,0(s8)
    1c82:	c721                	beqz	a4,1cca <main+0x500>
    1c84:	6705                	lui	a4,0x1
    1c86:	77fd                	lui	a5,0xfffff
    1c88:	83070713          	add	a4,a4,-2000 # 830 <core_list_mergesort+0x46>
    1c8c:	973e                	add	a4,a4,a5
    1c8e:	081c                	add	a5,sp,16
    1c90:	97ba                	add	a5,a5,a4
    1c92:	4401                	li	s0,0
    1c94:	c43e                	sw	a5,8(sp)
    1c96:	6a85                	lui	s5,0x1
    1c98:	00000a17          	auipc	s4,0x0
    1c9c:	6eca0a13          	add	s4,s4,1772 # 2384 <_min_stack+0x384>
    1ca0:	4722                	lw	a4,8(sp)
    1ca2:	00441793          	sll	a5,s0,0x4
    1ca6:	97a2                	add	a5,a5,s0
    1ca8:	078a                	sll	a5,a5,0x2
    1caa:	97ba                	add	a5,a5,a4
    1cac:	97d6                	add	a5,a5,s5
    1cae:	8267d603          	lhu	a2,-2010(a5) # ffffe826 <_stack_start+0xffefe826>
    1cb2:	85a2                	mv	a1,s0
    1cb4:	8552                	mv	a0,s4
    1cb6:	da2fe0ef          	jal	258 <printf>
    1cba:	0405                	add	s0,s0,1
    1cbc:	000c2783          	lw	a5,0(s8)
    1cc0:	0442                	sll	s0,s0,0x10
    1cc2:	8041                	srl	s0,s0,0x10
    1cc4:	fcf46ee3          	bltu	s0,a5,1ca0 <main+0x4d6>
    1cc8:	47b6                	lw	a5,76(sp)
    1cca:	0027f713          	and	a4,a5,2
    1cce:	cb21                	beqz	a4,1d1e <main+0x554>
    1cd0:	000c2703          	lw	a4,0(s8)
    1cd4:	1e070f63          	beqz	a4,1ed2 <main+0x708>
    1cd8:	6705                	lui	a4,0x1
    1cda:	77fd                	lui	a5,0xfffff
    1cdc:	83070713          	add	a4,a4,-2000 # 830 <core_list_mergesort+0x46>
    1ce0:	973e                	add	a4,a4,a5
    1ce2:	081c                	add	a5,sp,16
    1ce4:	97ba                	add	a5,a5,a4
    1ce6:	4401                	li	s0,0
    1ce8:	c43e                	sw	a5,8(sp)
    1cea:	6a85                	lui	s5,0x1
    1cec:	00000a17          	auipc	s4,0x0
    1cf0:	6b4a0a13          	add	s4,s4,1716 # 23a0 <_min_stack+0x3a0>
    1cf4:	4722                	lw	a4,8(sp)
    1cf6:	00441793          	sll	a5,s0,0x4
    1cfa:	97a2                	add	a5,a5,s0
    1cfc:	078a                	sll	a5,a5,0x2
    1cfe:	97ba                	add	a5,a5,a4
    1d00:	97d6                	add	a5,a5,s5
    1d02:	8287d603          	lhu	a2,-2008(a5) # ffffe828 <_stack_start+0xffefe828>
    1d06:	85a2                	mv	a1,s0
    1d08:	8552                	mv	a0,s4
    1d0a:	d4efe0ef          	jal	258 <printf>
    1d0e:	0405                	add	s0,s0,1
    1d10:	000c2783          	lw	a5,0(s8)
    1d14:	0442                	sll	s0,s0,0x10
    1d16:	8041                	srl	s0,s0,0x10
    1d18:	fcf46ee3          	bltu	s0,a5,1cf4 <main+0x52a>
    1d1c:	47b6                	lw	a5,76(sp)
    1d1e:	8b91                	and	a5,a5,4
    1d20:	000c2703          	lw	a4,0(s8)
    1d24:	c7a1                	beqz	a5,1d6c <main+0x5a2>
    1d26:	4401                	li	s0,0
    1d28:	c759                	beqz	a4,1db6 <main+0x5ec>
    1d2a:	6705                	lui	a4,0x1
    1d2c:	77fd                	lui	a5,0xfffff
    1d2e:	83070713          	add	a4,a4,-2000 # 830 <core_list_mergesort+0x46>
    1d32:	973e                	add	a4,a4,a5
    1d34:	081c                	add	a5,sp,16
    1d36:	97ba                	add	a5,a5,a4
    1d38:	c43e                	sw	a5,8(sp)
    1d3a:	6a85                	lui	s5,0x1
    1d3c:	00000a17          	auipc	s4,0x0
    1d40:	680a0a13          	add	s4,s4,1664 # 23bc <_min_stack+0x3bc>
    1d44:	4722                	lw	a4,8(sp)
    1d46:	00441793          	sll	a5,s0,0x4
    1d4a:	97a2                	add	a5,a5,s0
    1d4c:	078a                	sll	a5,a5,0x2
    1d4e:	97ba                	add	a5,a5,a4
    1d50:	97d6                	add	a5,a5,s5
    1d52:	82a7d603          	lhu	a2,-2006(a5) # ffffe82a <_stack_start+0xffefe82a>
    1d56:	85a2                	mv	a1,s0
    1d58:	8552                	mv	a0,s4
    1d5a:	cfefe0ef          	jal	258 <printf>
    1d5e:	0405                	add	s0,s0,1
    1d60:	000c2783          	lw	a5,0(s8)
    1d64:	0442                	sll	s0,s0,0x10
    1d66:	8041                	srl	s0,s0,0x10
    1d68:	fcf46ee3          	bltu	s0,a5,1d44 <main+0x57a>
    1d6c:	000c2783          	lw	a5,0(s8)
    1d70:	4401                	li	s0,0
    1d72:	c3b1                	beqz	a5,1db6 <main+0x5ec>
    1d74:	6705                	lui	a4,0x1
    1d76:	77fd                	lui	a5,0xfffff
    1d78:	83070713          	add	a4,a4,-2000 # 830 <core_list_mergesort+0x46>
    1d7c:	973e                	add	a4,a4,a5
    1d7e:	081c                	add	a5,sp,16
    1d80:	97ba                	add	a5,a5,a4
    1d82:	c43e                	sw	a5,8(sp)
    1d84:	6a85                	lui	s5,0x1
    1d86:	00000a17          	auipc	s4,0x0
    1d8a:	652a0a13          	add	s4,s4,1618 # 23d8 <_min_stack+0x3d8>
    1d8e:	4722                	lw	a4,8(sp)
    1d90:	00441793          	sll	a5,s0,0x4
    1d94:	97a2                	add	a5,a5,s0
    1d96:	078a                	sll	a5,a5,0x2
    1d98:	97ba                	add	a5,a5,a4
    1d9a:	97d6                	add	a5,a5,s5
    1d9c:	8247d603          	lhu	a2,-2012(a5) # ffffe824 <_stack_start+0xffefe824>
    1da0:	85a2                	mv	a1,s0
    1da2:	8552                	mv	a0,s4
    1da4:	cb4fe0ef          	jal	258 <printf>
    1da8:	0405                	add	s0,s0,1
    1daa:	000c2783          	lw	a5,0(s8)
    1dae:	0442                	sll	s0,s0,0x10
    1db0:	8041                	srl	s0,s0,0x10
    1db2:	fcf46ee3          	bltu	s0,a5,1d8e <main+0x5c4>
    1db6:	c8d1                	beqz	s1,1e4a <main+0x680>
    1db8:	06904a63          	bgtz	s1,1e2c <main+0x662>
    1dbc:	00000517          	auipc	a0,0x0
    1dc0:	6a850513          	add	a0,a0,1704 # 2464 <_min_stack+0x464>
    1dc4:	c94fe0ef          	jal	258 <printf>
    1dc8:	06e10513          	add	a0,sp,110
    1dcc:	3af5                	jal	17c8 <portable_fini>
    1dce:	7f010113          	add	sp,sp,2032
    1dd2:	40ba                	lw	ra,140(sp)
    1dd4:	442a                	lw	s0,136(sp)
    1dd6:	449a                	lw	s1,132(sp)
    1dd8:	490a                	lw	s2,128(sp)
    1dda:	59f6                	lw	s3,124(sp)
    1ddc:	5a66                	lw	s4,120(sp)
    1dde:	5ad6                	lw	s5,116(sp)
    1de0:	5b46                	lw	s6,112(sp)
    1de2:	5bb6                	lw	s7,108(sp)
    1de4:	5c26                	lw	s8,104(sp)
    1de6:	5c96                	lw	s9,100(sp)
    1de8:	5d06                	lw	s10,96(sp)
    1dea:	4df6                	lw	s11,92(sp)
    1dec:	4501                	li	a0,0
    1dee:	6149                	add	sp,sp,144
    1df0:	8082                	ret
    1df2:	02d805b3          	mul	a1,a6,a3
    1df6:	0805                	add	a6,a6,1
    1df8:	0842                	sll	a6,a6,0x10
    1dfa:	01085813          	srl	a6,a6,0x10
    1dfe:	95b2                	add	a1,a1,a2
    1e00:	c7cc                	sw	a1,12(a5)
    1e02:	bc75                	j	18be <main+0xf4>
    1e04:	4705                	li	a4,1
    1e06:	a4e79ae3          	bne	a5,a4,185a <main+0x90>
    1e0a:	47a2                	lw	a5,8(sp)
    1e0c:	7f079783          	lh	a5,2032(a5)
    1e10:	a40795e3          	bnez	a5,185a <main+0x90>
    1e14:	4722                	lw	a4,8(sp)
    1e16:	341537b7          	lui	a5,0x34153
    1e1a:	41578793          	add	a5,a5,1045 # 34153415 <_stack_start+0x34053415>
    1e1e:	7ef72623          	sw	a5,2028(a4)
    1e22:	06600793          	li	a5,102
    1e26:	7ef71823          	sh	a5,2032(a4)
    1e2a:	bc05                	j	185a <main+0x90>
    1e2c:	00000517          	auipc	a0,0x0
    1e30:	69c50513          	add	a0,a0,1692 # 24c8 <_min_stack+0x4c8>
    1e34:	c24fe0ef          	jal	258 <printf>
    1e38:	bf41                	j	1dc8 <main+0x5fe>
    1e3a:	4705                	li	a4,1
    1e3c:	be05                	j	196c <main+0x1a2>
    1e3e:	4722                	lw	a4,8(sp)
    1e40:	06600793          	li	a5,102
    1e44:	7ef71823          	sh	a5,2032(a4)
    1e48:	bc09                	j	185a <main+0x90>
    1e4a:	00000517          	auipc	a0,0x0
    1e4e:	5aa50513          	add	a0,a0,1450 # 23f4 <_min_stack+0x3f4>
    1e52:	c06fe0ef          	jal	258 <printf>
    1e56:	478d                	li	a5,3
    1e58:	f6f998e3          	bne	s3,a5,1dc8 <main+0x5fe>
    1e5c:	000c2703          	lw	a4,0(s8)
    1e60:	47a6                	lw	a5,72(sp)
    1e62:	854a                	mv	a0,s2
    1e64:	02e787b3          	mul	a5,a5,a4
    1e68:	d21787d3          	fcvt.d.wu	fa5,a5
    1e6c:	a83e                	fsd	fa5,16(sp)
    1e6e:	93dff0ef          	jal	17aa <time_in_secs>
    1e72:	c42a                	sw	a0,8(sp)
    1e74:	c62e                	sw	a1,12(sp)
    1e76:	2722                	fld	fa4,8(sp)
    1e78:	27c2                	fld	fa5,16(sp)
    1e7a:	00000797          	auipc	a5,0x0
    1e7e:	42e78793          	add	a5,a5,1070 # 22a8 <_min_stack+0x2a8>
    1e82:	00000717          	auipc	a4,0x0
    1e86:	40270713          	add	a4,a4,1026 # 2284 <_min_stack+0x284>
    1e8a:	1ae7f7d3          	fdiv.d	fa5,fa5,fa4
    1e8e:	00000517          	auipc	a0,0x0
    1e92:	5b250513          	add	a0,a0,1458 # 2440 <_min_stack+0x440>
    1e96:	a43e                	fsd	fa5,8(sp)
    1e98:	4622                	lw	a2,8(sp)
    1e9a:	46b2                	lw	a3,12(sp)
    1e9c:	bbcfe0ef          	jal	258 <printf>
    1ea0:	00000597          	auipc	a1,0x0
    1ea4:	4a858593          	add	a1,a1,1192 # 2348 <_min_stack+0x348>
    1ea8:	00000517          	auipc	a0,0x0
    1eac:	5b450513          	add	a0,a0,1460 # 245c <_min_stack+0x45c>
    1eb0:	ba8fe0ef          	jal	258 <printf>
    1eb4:	00000517          	auipc	a0,0x0
    1eb8:	16050513          	add	a0,a0,352 # 2014 <_min_stack+0x14>
    1ebc:	b9cfe0ef          	jal	258 <printf>
    1ec0:	b721                	j	1dc8 <main+0x5fe>
    1ec2:	00000517          	auipc	a0,0x0
    1ec6:	36a50513          	add	a0,a0,874 # 222c <_min_stack+0x22c>
    1eca:	b8efe0ef          	jal	258 <printf>
    1ece:	0485                	add	s1,s1,1
    1ed0:	b389                	j	1c12 <main+0x448>
    1ed2:	8b91                	and	a5,a5,4
    1ed4:	e8078ce3          	beqz	a5,1d6c <main+0x5a2>
    1ed8:	bdf9                	j	1db6 <main+0x5ec>
    1eda:	00000517          	auipc	a0,0x0
    1ede:	1a250513          	add	a0,a0,418 # 207c <_min_stack+0x7c>
    1ee2:	b76fe0ef          	jal	258 <printf>
    1ee6:	4985                	li	s3,1
    1ee8:	be19                	j	19fe <main+0x234>
    1eea:	00000517          	auipc	a0,0x0
    1eee:	22250513          	add	a0,a0,546 # 210c <_min_stack+0x10c>
    1ef2:	b66fe0ef          	jal	258 <printf>
    1ef6:	4991                	li	s3,4
    1ef8:	b619                	j	19fe <main+0x234>
    1efa:	00000517          	auipc	a0,0x0
    1efe:	15250513          	add	a0,a0,338 # 204c <_min_stack+0x4c>
    1f02:	b56fe0ef          	jal	258 <printf>
    1f06:	4981                	li	s3,0
    1f08:	bcdd                	j	19fe <main+0x234>
    1f0a:	6441                	lui	s0,0x10
    1f0c:	fff40493          	add	s1,s0,-1 # ffff <_stack_len+0x7fff>
    1f10:	59fd                	li	s3,-1
    1f12:	00000c17          	auipc	s8,0x0
    1f16:	692c0c13          	add	s8,s8,1682 # 25a4 <default_num_contexts>
    1f1a:	b185                	j	1b7a <main+0x3b0>
