
core_main.elf:     file format elf32-littleriscv


Disassembly of section .vectors:

00000000 <_vectors_start>:
   0:	0b20006f          	j	b2 <default_exc_handler>
   4:	0ae0006f          	j	b2 <default_exc_handler>
   8:	0aa0006f          	j	b2 <default_exc_handler>
   c:	0a60006f          	j	b2 <default_exc_handler>
  10:	0a20006f          	j	b2 <default_exc_handler>
  14:	09e0006f          	j	b2 <default_exc_handler>
  18:	09a0006f          	j	b2 <default_exc_handler>
  1c:	09a0006f          	j	b6 <timer_handler>
  20:	0920006f          	j	b2 <default_exc_handler>
  24:	08e0006f          	j	b2 <default_exc_handler>
  28:	08a0006f          	j	b2 <default_exc_handler>
  2c:	0860006f          	j	b2 <default_exc_handler>
  30:	0820006f          	j	b2 <default_exc_handler>
  34:	07e0006f          	j	b2 <default_exc_handler>
  38:	07a0006f          	j	b2 <default_exc_handler>
  3c:	0760006f          	j	b2 <default_exc_handler>
  40:	0720006f          	j	b2 <default_exc_handler>
  44:	06e0006f          	j	b2 <default_exc_handler>
  48:	06a0006f          	j	b2 <default_exc_handler>
  4c:	0660006f          	j	b2 <default_exc_handler>
  50:	0620006f          	j	b2 <default_exc_handler>
  54:	05e0006f          	j	b2 <default_exc_handler>
  58:	05a0006f          	j	b2 <default_exc_handler>
  5c:	0560006f          	j	b2 <default_exc_handler>
  60:	0520006f          	j	b2 <default_exc_handler>
  64:	04e0006f          	j	b2 <default_exc_handler>
  68:	04a0006f          	j	b2 <default_exc_handler>
  6c:	0460006f          	j	b2 <default_exc_handler>
  70:	0420006f          	j	b2 <default_exc_handler>
  74:	03e0006f          	j	b2 <default_exc_handler>
  78:	03a0006f          	j	b2 <default_exc_handler>
  7c:	0000                	.2byte	0x0
  7e:	0000                	.2byte	0x0
  80:	03a0006f          	j	ba <reset_handler>

Disassembly of section .text:

00000084 <_start>:
      84:	00002d17          	auipc	s10,0x2
      88:	424d0d13          	add	s10,s10,1060 # 24a8 <sgfTimerCallback>
      8c:	00003d97          	auipc	s11,0x3
      90:	c18d8d93          	add	s11,s11,-1000 # 2ca4 <_bss_end>
      94:	01bd5763          	bge	s10,s11,a2 <main_entry>

00000098 <zero_loop>:
      98:	000d2023          	sw	zero,0(s10)
      9c:	0d11                	add	s10,s10,4
      9e:	ffaddde3          	bge	s11,s10,98 <zero_loop>

000000a2 <main_entry>:
      a2:	4501                	li	a0,0
      a4:	4581                	li	a1,0
      a6:	01f010ef          	jal	18c4 <main>
      aa:	2895                	jal	11e <sim_halt>

000000ac <sleep_loop>:
      ac:	10500073          	wfi
      b0:	bff5                	j	ac <sleep_loop>

000000b2 <default_exc_handler>:
      b2:	0760006f          	j	128 <simple_exc_handler>

000000b6 <timer_handler>:
      b6:	11a0006f          	j	1d0 <simple_timer_handler>

000000ba <reset_handler>:
      ba:	00000093          	li	ra,0
      be:	8106                	mv	sp,ra
      c0:	8186                	mv	gp,ra
      c2:	8206                	mv	tp,ra
      c4:	8286                	mv	t0,ra
      c6:	8306                	mv	t1,ra
      c8:	8386                	mv	t2,ra
      ca:	8406                	mv	s0,ra
      cc:	8486                	mv	s1,ra
      ce:	8506                	mv	a0,ra
      d0:	8586                	mv	a1,ra
      d2:	8606                	mv	a2,ra
      d4:	8686                	mv	a3,ra
      d6:	8706                	mv	a4,ra
      d8:	8786                	mv	a5,ra
      da:	8806                	mv	a6,ra
      dc:	8886                	mv	a7,ra
      de:	8906                	mv	s2,ra
      e0:	8986                	mv	s3,ra
      e2:	8a06                	mv	s4,ra
      e4:	8a86                	mv	s5,ra
      e6:	8b06                	mv	s6,ra
      e8:	8b86                	mv	s7,ra
      ea:	8c06                	mv	s8,ra
      ec:	8c86                	mv	s9,ra
      ee:	8d06                	mv	s10,ra
      f0:	8d86                	mv	s11,ra
      f2:	8e06                	mv	t3,ra
      f4:	8e86                	mv	t4,ra
      f6:	8f06                	mv	t5,ra
      f8:	8f86                	mv	t6,ra
      fa:	00100117          	auipc	sp,0x100
      fe:	f0610113          	add	sp,sp,-250 # 100000 <_stack_start>

00000102 <get_cycle_value>:
     102:	c0002573          	rdcycle	a0
     106:	c80025f3          	rdcycleh	a1
     10a:	8082                	ret

0000010c <get_mepc>:
     10c:	34102573          	csrr	a0,mepc
     110:	8082                	ret

00000112 <get_mcause>:
     112:	34202573          	csrr	a0,mcause
     116:	8082                	ret

00000118 <get_mtval>:
     118:	34302573          	csrr	a0,mtval
     11c:	8082                	ret

0000011e <sim_halt>:
     11e:	002007b7          	lui	a5,0x200
     122:	4705                	li	a4,1
     124:	c798                	sw	a4,8(a5)
     126:	8082                	ret

00000128 <simple_exc_handler>:
     128:	1141                	add	sp,sp,-16
     12a:	00002517          	auipc	a0,0x2
     12e:	dee50513          	add	a0,a0,-530 # 1f18 <errpat+0x28>
     132:	c606                	sw	ra,12(sp)
     134:	22cd                	jal	316 <put_str>
     136:	00002517          	auipc	a0,0x2
     13a:	df250513          	add	a0,a0,-526 # 1f28 <errpat+0x38>
     13e:	2ae1                	jal	316 <put_str>
     140:	00002517          	auipc	a0,0x2
     144:	df850513          	add	a0,a0,-520 # 1f38 <errpat+0x48>
     148:	22f9                	jal	316 <put_str>
     14a:	34102573          	csrr	a0,mepc
     14e:	22c5                	jal	32e <put_hex>
     150:	00002517          	auipc	a0,0x2
     154:	df450513          	add	a0,a0,-524 # 1f44 <errpat+0x54>
     158:	2a7d                	jal	316 <put_str>
     15a:	34202573          	csrr	a0,mcause
     15e:	2ac1                	jal	32e <put_hex>
     160:	00002517          	auipc	a0,0x2
     164:	df050513          	add	a0,a0,-528 # 1f50 <errpat+0x60>
     168:	227d                	jal	316 <put_str>
     16a:	34302573          	csrr	a0,mtval
     16e:	22c1                	jal	32e <put_hex>
     170:	4529                	li	a0,10
     172:	2a71                	jal	30e <put_char>
     174:	002007b7          	lui	a5,0x200
     178:	4705                	li	a4,1
     17a:	c798                	sw	a4,8(a5)
     17c:	a001                	j	17c <simple_exc_handler+0x54>

0000017e <timer_read>:
     17e:	020047b7          	lui	a5,0x2004
     182:	4388                	lw	a0,0(a5)
     184:	43cc                	lw	a1,4(a5)
     186:	8082                	ret

00000188 <timecmp_update>:
     188:	020047b7          	lui	a5,0x2004
     18c:	c388                	sw	a0,0(a5)
     18e:	c3cc                	sw	a1,4(a5)
     190:	8082                	ret

00000192 <timer_enable>:
     192:	00002817          	auipc	a6,0x2
     196:	31e80813          	add	a6,a6,798 # 24b0 <time_increment>
     19a:	00a82023          	sw	a0,0(a6)
     19e:	02004737          	lui	a4,0x2004
     1a2:	00002797          	auipc	a5,0x2
     1a6:	30c7a323          	sw	a2,774(a5) # 24a8 <sgfTimerCallback>
     1aa:	431c                	lw	a5,0(a4)
     1ac:	4354                	lw	a3,4(a4)
     1ae:	00b82223          	sw	a1,4(a6)
     1b2:	953e                	add	a0,a0,a5
     1b4:	00f537b3          	sltu	a5,a0,a5
     1b8:	96ae                	add	a3,a3,a1
     1ba:	97b6                	add	a5,a5,a3
     1bc:	c35c                	sw	a5,4(a4)
     1be:	c308                	sw	a0,0(a4)
     1c0:	08000793          	li	a5,128
     1c4:	3047a073          	csrs	mie,a5
     1c8:	47a1                	li	a5,8
     1ca:	3007a073          	csrs	mstatus,a5
     1ce:	8082                	ret

000001d0 <simple_timer_handler>:
     1d0:	7129                	add	sp,sp,-320
     1d2:	12112e23          	sw	ra,316(sp)
     1d6:	12512c23          	sw	t0,312(sp)
     1da:	12612a23          	sw	t1,308(sp)
     1de:	12712823          	sw	t2,304(sp)
     1e2:	12a12623          	sw	a0,300(sp)
     1e6:	12b12423          	sw	a1,296(sp)
     1ea:	12c12223          	sw	a2,292(sp)
     1ee:	12d12023          	sw	a3,288(sp)
     1f2:	10e12e23          	sw	a4,284(sp)
     1f6:	10f12c23          	sw	a5,280(sp)
     1fa:	11012a23          	sw	a6,276(sp)
     1fe:	11112823          	sw	a7,272(sp)
     202:	11c12623          	sw	t3,268(sp)
     206:	11d12423          	sw	t4,264(sp)
     20a:	11e12223          	sw	t5,260(sp)
     20e:	11f12023          	sw	t6,256(sp)
     212:	bd82                	fsd	ft0,248(sp)
     214:	b986                	fsd	ft1,240(sp)
     216:	b58a                	fsd	ft2,232(sp)
     218:	b18e                	fsd	ft3,224(sp)
     21a:	ad92                	fsd	ft4,216(sp)
     21c:	a996                	fsd	ft5,208(sp)
     21e:	a59a                	fsd	ft6,200(sp)
     220:	a19e                	fsd	ft7,192(sp)
     222:	bd22                	fsd	fs0,184(sp)
     224:	b926                	fsd	fs1,176(sp)
     226:	b52a                	fsd	fa0,168(sp)
     228:	b12e                	fsd	fa1,160(sp)
     22a:	ad32                	fsd	fa2,152(sp)
     22c:	a936                	fsd	fa3,144(sp)
     22e:	a53a                	fsd	fa4,136(sp)
     230:	a13e                	fsd	fa5,128(sp)
     232:	02004737          	lui	a4,0x2004
     236:	00002617          	auipc	a2,0x2
     23a:	27a60613          	add	a2,a2,634 # 24b0 <time_increment>
     23e:	bcc2                	fsd	fa6,120(sp)
     240:	421c                	lw	a5,0(a2)
     242:	4314                	lw	a3,0(a4)
     244:	434c                	lw	a1,4(a4)
     246:	4250                	lw	a2,4(a2)
     248:	96be                	add	a3,a3,a5
     24a:	00f6b7b3          	sltu	a5,a3,a5
     24e:	962e                	add	a2,a2,a1
     250:	b8c6                	fsd	fa7,112(sp)
     252:	b4ca                	fsd	fs2,104(sp)
     254:	b0ce                	fsd	fs3,96(sp)
     256:	acd2                	fsd	fs4,88(sp)
     258:	a8d6                	fsd	fs5,80(sp)
     25a:	a4da                	fsd	fs6,72(sp)
     25c:	a0de                	fsd	fs7,64(sp)
     25e:	bc62                	fsd	fs8,56(sp)
     260:	b866                	fsd	fs9,48(sp)
     262:	b46a                	fsd	fs10,40(sp)
     264:	b06e                	fsd	fs11,32(sp)
     266:	ac72                	fsd	ft8,24(sp)
     268:	a876                	fsd	ft9,16(sp)
     26a:	a47a                	fsd	ft10,8(sp)
     26c:	a07e                	fsd	ft11,0(sp)
     26e:	97b2                	add	a5,a5,a2
     270:	c314                	sw	a3,0(a4)
     272:	c35c                	sw	a5,4(a4)
     274:	00002797          	auipc	a5,0x2
     278:	2347a783          	lw	a5,564(a5) # 24a8 <sgfTimerCallback>
     27c:	9782                	jalr	a5
     27e:	13c12083          	lw	ra,316(sp)
     282:	13812283          	lw	t0,312(sp)
     286:	13412303          	lw	t1,308(sp)
     28a:	13012383          	lw	t2,304(sp)
     28e:	12c12503          	lw	a0,300(sp)
     292:	12812583          	lw	a1,296(sp)
     296:	12412603          	lw	a2,292(sp)
     29a:	12012683          	lw	a3,288(sp)
     29e:	11c12703          	lw	a4,284(sp)
     2a2:	11812783          	lw	a5,280(sp)
     2a6:	11412803          	lw	a6,276(sp)
     2aa:	11012883          	lw	a7,272(sp)
     2ae:	10c12e03          	lw	t3,268(sp)
     2b2:	10812e83          	lw	t4,264(sp)
     2b6:	10412f03          	lw	t5,260(sp)
     2ba:	10012f83          	lw	t6,256(sp)
     2be:	306e                	fld	ft0,248(sp)
     2c0:	30ce                	fld	ft1,240(sp)
     2c2:	312e                	fld	ft2,232(sp)
     2c4:	318e                	fld	ft3,224(sp)
     2c6:	226e                	fld	ft4,216(sp)
     2c8:	22ce                	fld	ft5,208(sp)
     2ca:	232e                	fld	ft6,200(sp)
     2cc:	238e                	fld	ft7,192(sp)
     2ce:	346a                	fld	fs0,184(sp)
     2d0:	34ca                	fld	fs1,176(sp)
     2d2:	352a                	fld	fa0,168(sp)
     2d4:	358a                	fld	fa1,160(sp)
     2d6:	266a                	fld	fa2,152(sp)
     2d8:	26ca                	fld	fa3,144(sp)
     2da:	272a                	fld	fa4,136(sp)
     2dc:	278a                	fld	fa5,128(sp)
     2de:	3866                	fld	fa6,120(sp)
     2e0:	38c6                	fld	fa7,112(sp)
     2e2:	3926                	fld	fs2,104(sp)
     2e4:	3986                	fld	fs3,96(sp)
     2e6:	2a66                	fld	fs4,88(sp)
     2e8:	2ac6                	fld	fs5,80(sp)
     2ea:	2b26                	fld	fs6,72(sp)
     2ec:	2b86                	fld	fs7,64(sp)
     2ee:	3c62                	fld	fs8,56(sp)
     2f0:	3cc2                	fld	fs9,48(sp)
     2f2:	3d22                	fld	fs10,40(sp)
     2f4:	3d82                	fld	fs11,32(sp)
     2f6:	2e62                	fld	ft8,24(sp)
     2f8:	2ec2                	fld	ft9,16(sp)
     2fa:	2f22                	fld	ft10,8(sp)
     2fc:	2f82                	fld	ft11,0(sp)
     2fe:	6131                	add	sp,sp,320
     300:	30200073          	mret

00000304 <timer_disable>:
     304:	08000793          	li	a5,128
     308:	3047b073          	csrc	mie,a5
     30c:	8082                	ret

0000030e <put_char>:
     30e:	00200737          	lui	a4,0x200
     312:	c348                	sw	a0,4(a4)
     314:	8082                	ret

00000316 <put_str>:
     316:	00054783          	lbu	a5,0(a0)
     31a:	cb81                	beqz	a5,32a <put_str+0x14>
     31c:	00200737          	lui	a4,0x200
     320:	0505                	add	a0,a0,1
     322:	c35c                	sw	a5,4(a4)
     324:	00054783          	lbu	a5,0(a0)
     328:	ffe5                	bnez	a5,320 <put_str+0xa>
     32a:	4501                	li	a0,0
     32c:	8082                	ret

0000032e <put_hex>:
     32e:	46a1                	li	a3,8
     330:	4825                	li	a6,9
     332:	002005b7          	lui	a1,0x200
     336:	a029                	j	340 <put_hex+0x12>
     338:	c1d0                	sw	a2,4(a1)
     33a:	16fd                	add	a3,a3,-1
     33c:	0512                	sll	a0,a0,0x4
     33e:	ce89                	beqz	a3,358 <put_hex+0x2a>
     340:	01c55713          	srl	a4,a0,0x1c
     344:	03070613          	add	a2,a4,48 # 200030 <_stack_start+0x100030>
     348:	03770793          	add	a5,a4,55
     34c:	fee876e3          	bgeu	a6,a4,338 <put_hex+0xa>
     350:	c1dc                	sw	a5,4(a1)
     352:	16fd                	add	a3,a3,-1
     354:	0512                	sll	a0,a0,0x4
     356:	f6ed                	bnez	a3,340 <put_hex+0x12>
     358:	8082                	ret

0000035a <printf>:
     35a:	7159                	add	sp,sp,-112
     35c:	c6a2                	sw	s0,76(sp)
     35e:	c4a6                	sw	s1,72(sp)
     360:	c2ca                	sw	s2,68(sp)
     362:	c0ce                	sw	s3,64(sp)
     364:	de52                	sw	s4,60(sp)
     366:	dc56                	sw	s5,56(sp)
     368:	da5a                	sw	s6,52(sp)
     36a:	d85e                	sw	s7,48(sp)
     36c:	d662                	sw	s8,44(sp)
     36e:	d466                	sw	s9,40(sp)
     370:	d26a                	sw	s10,36(sp)
     372:	caae                	sw	a1,84(sp)
     374:	ccb2                	sw	a2,88(sp)
     376:	ceb6                	sw	a3,92(sp)
     378:	d0ba                	sw	a4,96(sp)
     37a:	d2be                	sw	a5,100(sp)
     37c:	d4c2                	sw	a6,104(sp)
     37e:	d6c6                	sw	a7,108(sp)
     380:	00054783          	lbu	a5,0(a0)
     384:	05410e93          	add	t4,sp,84
     388:	c676                	sw	t4,12(sp)
     38a:	c7a9                	beqz	a5,3d4 <printf+0x7a>
     38c:	00150713          	add	a4,a0,1
     390:	02500e13          	li	t3,37
     394:	03000293          	li	t0,48
     398:	45a5                	li	a1,9
     39a:	04c00f93          	li	t6,76
     39e:	06000413          	li	s0,96
     3a2:	43d9                	li	t2,22
     3a4:	00002f17          	auipc	t5,0x2
     3a8:	a9cf0f13          	add	t5,t5,-1380 # 1e40 <main+0x57c>
     3ac:	07800913          	li	s2,120
     3b0:	01010813          	add	a6,sp,16
     3b4:	48c1                	li	a7,16
     3b6:	00200637          	lui	a2,0x200
     3ba:	02000313          	li	t1,32
     3be:	02d00493          	li	s1,45
     3c2:	03c78663          	beq	a5,t3,3ee <printf+0x94>
     3c6:	c25c                	sw	a5,4(a2)
     3c8:	853a                	mv	a0,a4
     3ca:	00054783          	lbu	a5,0(a0)
     3ce:	00150713          	add	a4,a0,1
     3d2:	fbe5                	bnez	a5,3c2 <printf+0x68>
     3d4:	4436                	lw	s0,76(sp)
     3d6:	44a6                	lw	s1,72(sp)
     3d8:	4916                	lw	s2,68(sp)
     3da:	4986                	lw	s3,64(sp)
     3dc:	5a72                	lw	s4,60(sp)
     3de:	5ae2                	lw	s5,56(sp)
     3e0:	5b52                	lw	s6,52(sp)
     3e2:	5bc2                	lw	s7,48(sp)
     3e4:	5c32                	lw	s8,44(sp)
     3e6:	5ca2                	lw	s9,40(sp)
     3e8:	5d12                	lw	s10,36(sp)
     3ea:	6165                	add	sp,sp,112
     3ec:	8082                	ret
     3ee:	00154683          	lbu	a3,1(a0)
     3f2:	22568363          	beq	a3,t0,618 <printf+0x2be>
     3f6:	22968663          	beq	a3,s1,622 <printf+0x2c8>
     3fa:	0509                	add	a0,a0,2
     3fc:	4981                	li	s3,0
     3fe:	fd068793          	add	a5,a3,-48
     402:	0ff7f793          	zext.b	a5,a5
     406:	4701                	li	a4,0
     408:	02f5e263          	bltu	a1,a5,42c <printf+0xd2>
     40c:	00271793          	sll	a5,a4,0x2
     410:	97ba                	add	a5,a5,a4
     412:	0786                	sll	a5,a5,0x1
     414:	0505                	add	a0,a0,1
     416:	97b6                	add	a5,a5,a3
     418:	fff54683          	lbu	a3,-1(a0)
     41c:	fd078713          	add	a4,a5,-48
     420:	fd068793          	add	a5,a3,-48
     424:	0ff7f793          	zext.b	a5,a5
     428:	fef5f2e3          	bgeu	a1,a5,40c <printf+0xb2>
     42c:	0df6f793          	and	a5,a3,223
     430:	03f78563          	beq	a5,t6,45a <printf+0x100>
     434:	d2c5                	beqz	a3,3d4 <printf+0x7a>
     436:	8ab6                	mv	s5,a3
     438:	00d47663          	bgeu	s0,a3,444 <printf+0xea>
     43c:	fe068a93          	add	s5,a3,-32
     440:	0ffafa93          	zext.b	s5,s5
     444:	fbea8793          	add	a5,s5,-66
     448:	0ff7f793          	zext.b	a5,a5
     44c:	00f3ed63          	bltu	t2,a5,466 <printf+0x10c>
     450:	078a                	sll	a5,a5,0x2
     452:	97fa                	add	a5,a5,t5
     454:	439c                	lw	a5,0(a5)
     456:	97fa                	add	a5,a5,t5
     458:	8782                	jr	a5
     45a:	00054683          	lbu	a3,0(a0)
     45e:	0049e993          	or	s3,s3,4
     462:	0505                	add	a0,a0,1
     464:	bfc1                	j	434 <printf+0xda>
     466:	002007b7          	lui	a5,0x200
     46a:	c3d4                	sw	a3,4(a5)
     46c:	bfb9                	j	3ca <printf+0x70>
     46e:	0049fa13          	and	s4,s3,4
     472:	000eab03          	lw	s6,0(t4)
     476:	004e8793          	add	a5,t4,4
     47a:	1a0a1963          	bnez	s4,62c <printf+0x2d2>
     47e:	04400a13          	li	s4,68
     482:	1f4a9d63          	bne	s5,s4,67c <printf+0x322>
     486:	8a5a                	mv	s4,s6
     488:	1a0b4963          	bltz	s6,63a <printf+0x2e0>
     48c:	8ebe                	mv	t4,a5
     48e:	4c01                	li	s8,0
     490:	4aa9                	li	s5,10
     492:	4c9d                	li	s9,7
     494:	15268b63          	beq	a3,s2,5ea <printf+0x290>
     498:	4b01                	li	s6,0
     49a:	a011                	j	49e <printf+0x144>
     49c:	8b3e                	mv	s6,a5
     49e:	035a77b3          	remu	a5,s4,s5
     4a2:	8bd2                	mv	s7,s4
     4a4:	0ff7f693          	zext.b	a3,a5
     4a8:	035a5a33          	divu	s4,s4,s5
     4ac:	00f5f563          	bgeu	a1,a5,4b6 <printf+0x15c>
     4b0:	96e6                	add	a3,a3,s9
     4b2:	0ff6f693          	zext.b	a3,a3
     4b6:	001b0793          	add	a5,s6,1
     4ba:	00f80d33          	add	s10,a6,a5
     4be:	03068693          	add	a3,a3,48
     4c2:	fedd0fa3          	sb	a3,-1(s10)
     4c6:	015be563          	bltu	s7,s5,4d0 <printf+0x176>
     4ca:	fd1799e3          	bne	a5,a7,49c <printf+0x142>
     4ce:	4b3d                	li	s6,15
     4d0:	000c0963          	beqz	s8,4e2 <printf+0x188>
     4d4:	02078793          	add	a5,a5,32 # 200020 <_stack_start+0x100020>
     4d8:	978a                	add	a5,a5,sp
     4da:	fe978823          	sb	s1,-16(a5)
     4de:	002b0793          	add	a5,s6,2
     4e2:	0019fa13          	and	s4,s3,1
     4e6:	0a12                	sll	s4,s4,0x4
     4e8:	0029f993          	and	s3,s3,2
     4ec:	020a0a13          	add	s4,s4,32
     4f0:	00178693          	add	a3,a5,1
     4f4:	16099e63          	bnez	s3,670 <printf+0x316>
     4f8:	00e7fa63          	bgeu	a5,a4,50c <printf+0x1b2>
     4fc:	89b6                	mv	s3,a3
     4fe:	01462223          	sw	s4,4(a2) # 200004 <_stack_start+0x100004>
     502:	0685                	add	a3,a3,1
     504:	ff371ce3          	bne	a4,s3,4fc <printf+0x1a2>
     508:	00170693          	add	a3,a4,1
     50c:	97c2                	add	a5,a5,a6
     50e:	fff7c983          	lbu	s3,-1(a5)
     512:	17fd                	add	a5,a5,-1
     514:	00460a13          	add	s4,a2,4
     518:	01362223          	sw	s3,4(a2)
     51c:	fef819e3          	bne	a6,a5,50e <printf+0x1b4>
     520:	00168793          	add	a5,a3,1
     524:	eae6f3e3          	bgeu	a3,a4,3ca <printf+0x70>
     528:	86be                	mv	a3,a5
     52a:	006a2023          	sw	t1,0(s4)
     52e:	0785                	add	a5,a5,1
     530:	fed71ce3          	bne	a4,a3,528 <printf+0x1ce>
     534:	bd59                	j	3ca <printf+0x70>
     536:	000ec703          	lbu	a4,0(t4)
     53a:	002007b7          	lui	a5,0x200
     53e:	0e91                	add	t4,t4,4
     540:	c3d8                	sw	a4,4(a5)
     542:	b561                	j	3ca <printf+0x70>
     544:	000ea683          	lw	a3,0(t4)
     548:	0029f993          	and	s3,s3,2
     54c:	0e91                	add	t4,t4,4
     54e:	0006ca83          	lbu	s5,0(a3)
     552:	100a8a63          	beqz	s5,666 <printf+0x30c>
     556:	4781                	li	a5,0
     558:	8b3e                	mv	s6,a5
     55a:	0785                	add	a5,a5,1 # 200001 <_stack_start+0x100001>
     55c:	00f68a33          	add	s4,a3,a5
     560:	000a4a03          	lbu	s4,0(s4)
     564:	fe0a1ae3          	bnez	s4,558 <printf+0x1fe>
     568:	002b0a13          	add	s4,s6,2
     56c:	02099d63          	bnez	s3,5a6 <printf+0x24c>
     570:	10e7f263          	bgeu	a5,a4,674 <printf+0x31a>
     574:	00200ab7          	lui	s5,0x200
     578:	87d2                	mv	a5,s4
     57a:	0a91                	add	s5,s5,4 # 200004 <_stack_start+0x100004>
     57c:	02000b13          	li	s6,32
     580:	89be                	mv	s3,a5
     582:	016aa023          	sw	s6,0(s5)
     586:	0785                	add	a5,a5,1
     588:	fee9ece3          	bltu	s3,a4,580 <printf+0x226>
     58c:	4781                	li	a5,0
     58e:	01476463          	bltu	a4,s4,596 <printf+0x23c>
     592:	414707b3          	sub	a5,a4,s4
     596:	0006ca83          	lbu	s5,0(a3)
     59a:	0a05                	add	s4,s4,1
     59c:	97d2                	add	a5,a5,s4
     59e:	00178a13          	add	s4,a5,1
     5a2:	000a8b63          	beqz	s5,5b8 <printf+0x25e>
     5a6:	002009b7          	lui	s3,0x200
     5aa:	0685                	add	a3,a3,1
     5ac:	0159a223          	sw	s5,4(s3) # 200004 <_stack_start+0x100004>
     5b0:	0006ca83          	lbu	s5,0(a3)
     5b4:	fe0a9be3          	bnez	s5,5aa <printf+0x250>
     5b8:	e0e7f9e3          	bgeu	a5,a4,3ca <printf+0x70>
     5bc:	002006b7          	lui	a3,0x200
     5c0:	0691                	add	a3,a3,4 # 200004 <_stack_start+0x100004>
     5c2:	02000993          	li	s3,32
     5c6:	87d2                	mv	a5,s4
     5c8:	0136a023          	sw	s3,0(a3)
     5cc:	0a05                	add	s4,s4,1
     5ce:	fee7ece3          	bltu	a5,a4,5c6 <printf+0x26c>
     5d2:	bbe5                	j	3ca <printf+0x70>
     5d4:	0049f793          	and	a5,s3,4
     5d8:	c3d9                	beqz	a5,65e <printf+0x304>
     5da:	000eaa03          	lw	s4,0(t4)
     5de:	4c01                	li	s8,0
     5e0:	0e91                	add	t4,t4,4
     5e2:	4aa1                	li	s5,8
     5e4:	4c9d                	li	s9,7
     5e6:	eb2699e3          	bne	a3,s2,498 <printf+0x13e>
     5ea:	02700c93          	li	s9,39
     5ee:	b56d                	j	498 <printf+0x13e>
     5f0:	0049f793          	and	a5,s3,4
     5f4:	c3ad                	beqz	a5,656 <printf+0x2fc>
     5f6:	000eaa03          	lw	s4,0(t4)
     5fa:	4c01                	li	s8,0
     5fc:	0e91                	add	t4,t4,4
     5fe:	4ac1                	li	s5,16
     600:	bd49                	j	492 <printf+0x138>
     602:	0049f793          	and	a5,s3,4
     606:	e3b1                	bnez	a5,64a <printf+0x2f0>
     608:	4a89                	li	s5,2
     60a:	004e8793          	add	a5,t4,4
     60e:	000eaa03          	lw	s4,0(t4)
     612:	4c01                	li	s8,0
     614:	8ebe                	mv	t4,a5
     616:	bdb5                	j	492 <printf+0x138>
     618:	00254683          	lbu	a3,2(a0)
     61c:	4985                	li	s3,1
     61e:	050d                	add	a0,a0,3
     620:	bbf9                	j	3fe <printf+0xa4>
     622:	00254683          	lbu	a3,2(a0)
     626:	4989                	li	s3,2
     628:	050d                	add	a0,a0,3
     62a:	bbd1                	j	3fe <printf+0xa4>
     62c:	04400e93          	li	t4,68
     630:	8a5a                	mv	s4,s6
     632:	e5da9de3          	bne	s5,t4,48c <printf+0x132>
     636:	e40b5be3          	bgez	s6,48c <printf+0x132>
     63a:	41600a33          	neg	s4,s6
     63e:	0089e993          	or	s3,s3,8
     642:	8ebe                	mv	t4,a5
     644:	4c21                	li	s8,8
     646:	4aa9                	li	s5,10
     648:	b5a9                	j	492 <printf+0x138>
     64a:	000eaa03          	lw	s4,0(t4)
     64e:	4c01                	li	s8,0
     650:	0e91                	add	t4,t4,4
     652:	4a89                	li	s5,2
     654:	bd3d                	j	492 <printf+0x138>
     656:	4ac1                	li	s5,16
     658:	004e8793          	add	a5,t4,4
     65c:	bf4d                	j	60e <printf+0x2b4>
     65e:	4aa1                	li	s5,8
     660:	004e8793          	add	a5,t4,4
     664:	b76d                	j	60e <printf+0x2b4>
     666:	4a05                	li	s4,1
     668:	00099c63          	bnez	s3,680 <printf+0x326>
     66c:	f701                	bnez	a4,574 <printf+0x21a>
     66e:	bbb1                	j	3ca <printf+0x70>
     670:	86be                	mv	a3,a5
     672:	bd69                	j	50c <printf+0x1b2>
     674:	87d2                	mv	a5,s4
     676:	003b0a13          	add	s4,s6,3
     67a:	b735                	j	5a6 <printf+0x24c>
     67c:	4aa9                	li	s5,10
     67e:	bf41                	j	60e <printf+0x2b4>
     680:	4781                	li	a5,0
     682:	bf1d                	j	5b8 <printf+0x25e>

00000684 <iterate>:
     684:	1141                	add	sp,sp,-16
     686:	c04a                	sw	s2,0(sp)
     688:	01c52903          	lw	s2,28(a0)
     68c:	c606                	sw	ra,12(sp)
     68e:	c422                	sw	s0,8(sp)
     690:	c226                	sw	s1,4(sp)
     692:	02052c23          	sw	zero,56(a0)
     696:	02052e23          	sw	zero,60(a0)
     69a:	02090c63          	beqz	s2,6d2 <iterate+0x4e>
     69e:	842a                	mv	s0,a0
     6a0:	4481                	li	s1,0
     6a2:	4585                	li	a1,1
     6a4:	8522                	mv	a0,s0
     6a6:	2e11                	jal	9ba <core_bench_list>
     6a8:	03845583          	lhu	a1,56(s0)
     6ac:	046010ef          	jal	16f2 <crcu16>
     6b0:	55fd                	li	a1,-1
     6b2:	02a41c23          	sh	a0,56(s0)
     6b6:	8522                	mv	a0,s0
     6b8:	2609                	jal	9ba <core_bench_list>
     6ba:	03845583          	lhu	a1,56(s0)
     6be:	034010ef          	jal	16f2 <crcu16>
     6c2:	02a41c23          	sh	a0,56(s0)
     6c6:	e099                	bnez	s1,6cc <iterate+0x48>
     6c8:	02a41d23          	sh	a0,58(s0)
     6cc:	0485                	add	s1,s1,1
     6ce:	fc991ae3          	bne	s2,s1,6a2 <iterate+0x1e>
     6d2:	40b2                	lw	ra,12(sp)
     6d4:	4422                	lw	s0,8(sp)
     6d6:	4492                	lw	s1,4(sp)
     6d8:	4902                	lw	s2,0(sp)
     6da:	4501                	li	a0,0
     6dc:	0141                	add	sp,sp,16
     6de:	8082                	ret

000006e0 <cmp_idx>:
     6e0:	c619                	beqz	a2,6ee <cmp_idx+0xe>
     6e2:	00251503          	lh	a0,2(a0)
     6e6:	00259783          	lh	a5,2(a1) # 200002 <_stack_start+0x100002>
     6ea:	8d1d                	sub	a0,a0,a5
     6ec:	8082                	ret
     6ee:	00051783          	lh	a5,0(a0)
     6f2:	01079713          	sll	a4,a5,0x10
     6f6:	8341                	srl	a4,a4,0x10
     6f8:	8321                	srl	a4,a4,0x8
     6fa:	f007f793          	and	a5,a5,-256
     6fe:	8fd9                	or	a5,a5,a4
     700:	00f51023          	sh	a5,0(a0)
     704:	00059783          	lh	a5,0(a1)
     708:	00251503          	lh	a0,2(a0)
     70c:	01079713          	sll	a4,a5,0x10
     710:	8341                	srl	a4,a4,0x10
     712:	8321                	srl	a4,a4,0x8
     714:	f007f793          	and	a5,a5,-256
     718:	8fd9                	or	a5,a5,a4
     71a:	00f59023          	sh	a5,0(a1)
     71e:	00259783          	lh	a5,2(a1)
     722:	8d1d                	sub	a0,a0,a5
     724:	8082                	ret

00000726 <calc_func>:
     726:	1101                	add	sp,sp,-32
     728:	cc22                	sw	s0,24(sp)
     72a:	00051403          	lh	s0,0(a0)
     72e:	ce06                	sw	ra,28(sp)
     730:	ca26                	sw	s1,20(sp)
     732:	40745793          	sra	a5,s0,0x7
     736:	c84a                	sw	s2,16(sp)
     738:	c64e                	sw	s3,12(sp)
     73a:	8b85                	and	a5,a5,1
     73c:	cb91                	beqz	a5,750 <calc_func+0x2a>
     73e:	40f2                	lw	ra,28(sp)
     740:	07f47513          	and	a0,s0,127
     744:	4462                	lw	s0,24(sp)
     746:	44d2                	lw	s1,20(sp)
     748:	4942                	lw	s2,16(sp)
     74a:	49b2                	lw	s3,12(sp)
     74c:	6105                	add	sp,sp,32
     74e:	8082                	ret
     750:	40345713          	sra	a4,s0,0x3
     754:	8b3d                	and	a4,a4,15
     756:	84ae                	mv	s1,a1
     758:	00747693          	and	a3,s0,7
     75c:	00471593          	sll	a1,a4,0x4
     760:	0384d783          	lhu	a5,56(s1)
     764:	89aa                	mv	s3,a0
     766:	8dd9                	or	a1,a1,a4
     768:	ce95                	beqz	a3,7a4 <calc_func+0x7e>
     76a:	4705                	li	a4,1
     76c:	06e68963          	beq	a3,a4,7de <calc_func+0xb8>
     770:	01041513          	sll	a0,s0,0x10
     774:	8141                	srl	a0,a0,0x10
     776:	8922                	mv	s2,s0
     778:	85be                	mv	a1,a5
     77a:	779000ef          	jal	16f2 <crcu16>
     77e:	87aa                	mv	a5,a0
     780:	f0047413          	and	s0,s0,-256
     784:	07f97513          	and	a0,s2,127
     788:	8c49                	or	s0,s0,a0
     78a:	02f49c23          	sh	a5,56(s1)
     78e:	08046413          	or	s0,s0,128
     792:	00899023          	sh	s0,0(s3)
     796:	40f2                	lw	ra,28(sp)
     798:	4462                	lw	s0,24(sp)
     79a:	44d2                	lw	s1,20(sp)
     79c:	4942                	lw	s2,16(sp)
     79e:	49b2                	lw	s3,12(sp)
     7a0:	6105                	add	sp,sp,32
     7a2:	8082                	ret
     7a4:	02200693          	li	a3,34
     7a8:	872e                	mv	a4,a1
     7aa:	00d5d463          	bge	a1,a3,7b2 <calc_func+0x8c>
     7ae:	02200713          	li	a4,34
     7b2:	00249683          	lh	a3,2(s1)
     7b6:	00049603          	lh	a2,0(s1)
     7ba:	48cc                	lw	a1,20(s1)
     7bc:	4c88                	lw	a0,24(s1)
     7be:	0ff77713          	zext.b	a4,a4
     7c2:	59d000ef          	jal	155e <core_bench_state>
     7c6:	03e4d783          	lhu	a5,62(s1)
     7ca:	e399                	bnez	a5,7d0 <calc_func+0xaa>
     7cc:	02a49f23          	sh	a0,62(s1)
     7d0:	01051913          	sll	s2,a0,0x10
     7d4:	0384d783          	lhu	a5,56(s1)
     7d8:	41095913          	sra	s2,s2,0x10
     7dc:	bf71                	j	778 <calc_func+0x52>
     7de:	863e                	mv	a2,a5
     7e0:	02848513          	add	a0,s1,40
     7e4:	273000ef          	jal	1256 <core_bench_matrix>
     7e8:	03c4d783          	lhu	a5,60(s1)
     7ec:	f3f5                	bnez	a5,7d0 <calc_func+0xaa>
     7ee:	02a49e23          	sh	a0,60(s1)
     7f2:	bff9                	j	7d0 <calc_func+0xaa>

000007f4 <cmp_complex>:
     7f4:	1141                	add	sp,sp,-16
     7f6:	c226                	sw	s1,4(sp)
     7f8:	84ae                	mv	s1,a1
     7fa:	85b2                	mv	a1,a2
     7fc:	c606                	sw	ra,12(sp)
     7fe:	c422                	sw	s0,8(sp)
     800:	8432                	mv	s0,a2
     802:	3715                	jal	726 <calc_func>
     804:	87aa                	mv	a5,a0
     806:	85a2                	mv	a1,s0
     808:	8526                	mv	a0,s1
     80a:	843e                	mv	s0,a5
     80c:	3f29                	jal	726 <calc_func>
     80e:	40b2                	lw	ra,12(sp)
     810:	40a40533          	sub	a0,s0,a0
     814:	4422                	lw	s0,8(sp)
     816:	4492                	lw	s1,4(sp)
     818:	0141                	add	sp,sp,16
     81a:	8082                	ret

0000081c <copy_info>:
     81c:	00059703          	lh	a4,0(a1)
     820:	00259783          	lh	a5,2(a1)
     824:	00e51023          	sh	a4,0(a0)
     828:	00f51123          	sh	a5,2(a0)
     82c:	8082                	ret

0000082e <core_list_insert_new>:
     82e:	00062803          	lw	a6,0(a2)
     832:	00880893          	add	a7,a6,8
     836:	02e8ff63          	bgeu	a7,a4,874 <core_list_insert_new+0x46>
     83a:	4298                	lw	a4,0(a3)
     83c:	00470313          	add	t1,a4,4
     840:	02f37a63          	bgeu	t1,a5,874 <core_list_insert_new+0x46>
     844:	01162023          	sw	a7,0(a2)
     848:	411c                	lw	a5,0(a0)
     84a:	00059883          	lh	a7,0(a1)
     84e:	00259603          	lh	a2,2(a1)
     852:	00f82023          	sw	a5,0(a6)
     856:	01052023          	sw	a6,0(a0)
     85a:	00e82223          	sw	a4,4(a6)
     85e:	429c                	lw	a5,0(a3)
     860:	8542                	mv	a0,a6
     862:	0791                	add	a5,a5,4
     864:	c29c                	sw	a5,0(a3)
     866:	00482783          	lw	a5,4(a6)
     86a:	01179023          	sh	a7,0(a5)
     86e:	00c79123          	sh	a2,2(a5)
     872:	8082                	ret
     874:	4801                	li	a6,0
     876:	8542                	mv	a0,a6
     878:	8082                	ret

0000087a <core_list_remove>:
     87a:	87aa                	mv	a5,a0
     87c:	4108                	lw	a0,0(a0)
     87e:	43d4                	lw	a3,4(a5)
     880:	4150                	lw	a2,4(a0)
     882:	4118                	lw	a4,0(a0)
     884:	c3d0                	sw	a2,4(a5)
     886:	c154                	sw	a3,4(a0)
     888:	c398                	sw	a4,0(a5)
     88a:	00052023          	sw	zero,0(a0)
     88e:	8082                	ret

00000890 <core_list_undo_remove>:
     890:	41d0                	lw	a2,4(a1)
     892:	4154                	lw	a3,4(a0)
     894:	4198                	lw	a4,0(a1)
     896:	c150                	sw	a2,4(a0)
     898:	c1d4                	sw	a3,4(a1)
     89a:	c118                	sw	a4,0(a0)
     89c:	c188                	sw	a0,0(a1)
     89e:	8082                	ret

000008a0 <core_list_find>:
     8a0:	00259703          	lh	a4,2(a1)
     8a4:	00074c63          	bltz	a4,8bc <core_list_find+0x1c>
     8a8:	e501                	bnez	a0,8b0 <core_list_find+0x10>
     8aa:	a03d                	j	8d8 <core_list_find+0x38>
     8ac:	4108                	lw	a0,0(a0)
     8ae:	c11d                	beqz	a0,8d4 <core_list_find+0x34>
     8b0:	415c                	lw	a5,4(a0)
     8b2:	00279783          	lh	a5,2(a5)
     8b6:	fee79be3          	bne	a5,a4,8ac <core_list_find+0xc>
     8ba:	8082                	ret
     8bc:	cd01                	beqz	a0,8d4 <core_list_find+0x34>
     8be:	00059703          	lh	a4,0(a1)
     8c2:	a019                	j	8c8 <core_list_find+0x28>
     8c4:	4108                	lw	a0,0(a0)
     8c6:	c901                	beqz	a0,8d6 <core_list_find+0x36>
     8c8:	415c                	lw	a5,4(a0)
     8ca:	0007c783          	lbu	a5,0(a5)
     8ce:	fee79be3          	bne	a5,a4,8c4 <core_list_find+0x24>
     8d2:	8082                	ret
     8d4:	4501                	li	a0,0
     8d6:	8082                	ret
     8d8:	8082                	ret

000008da <core_list_reverse>:
     8da:	c901                	beqz	a0,8ea <core_list_reverse+0x10>
     8dc:	4701                	li	a4,0
     8de:	a011                	j	8e2 <core_list_reverse+0x8>
     8e0:	853e                	mv	a0,a5
     8e2:	411c                	lw	a5,0(a0)
     8e4:	c118                	sw	a4,0(a0)
     8e6:	872a                	mv	a4,a0
     8e8:	ffe5                	bnez	a5,8e0 <core_list_reverse+0x6>
     8ea:	8082                	ret

000008ec <core_list_mergesort>:
     8ec:	7179                	add	sp,sp,-48
     8ee:	ce4e                	sw	s3,28(sp)
     8f0:	ca56                	sw	s5,20(sp)
     8f2:	c65e                	sw	s7,12(sp)
     8f4:	c462                	sw	s8,8(sp)
     8f6:	c06a                	sw	s10,0(sp)
     8f8:	d606                	sw	ra,44(sp)
     8fa:	d422                	sw	s0,40(sp)
     8fc:	d226                	sw	s1,36(sp)
     8fe:	d04a                	sw	s2,32(sp)
     900:	cc52                	sw	s4,24(sp)
     902:	c85a                	sw	s6,16(sp)
     904:	c266                	sw	s9,4(sp)
     906:	89aa                	mv	s3,a0
     908:	8c2e                	mv	s8,a1
     90a:	8bb2                	mv	s7,a2
     90c:	4a85                	li	s5,1
     90e:	4d05                	li	s10,1
     910:	08098363          	beqz	s3,996 <core_list_mergesort+0xaa>
     914:	4c81                	li	s9,0
     916:	4481                	li	s1,0
     918:	4b01                	li	s6,0
     91a:	0c85                	add	s9,s9,1
     91c:	87ce                	mv	a5,s3
     91e:	4401                	li	s0,0
     920:	439c                	lw	a5,0(a5)
     922:	0405                	add	s0,s0,1
     924:	c399                	beqz	a5,92a <core_list_mergesort+0x3e>
     926:	fe8a9de3          	bne	s5,s0,920 <core_list_mergesort+0x34>
     92a:	894e                	mv	s2,s3
     92c:	8a56                	mv	s4,s5
     92e:	89be                	mv	s3,a5
     930:	00805d63          	blez	s0,94a <core_list_mergesort+0x5e>
     934:	020a1863          	bnez	s4,964 <core_list_mergesort+0x78>
     938:	87ca                	mv	a5,s2
     93a:	00092903          	lw	s2,0(s2)
     93e:	147d                	add	s0,s0,-1
     940:	cc99                	beqz	s1,95e <core_list_mergesort+0x72>
     942:	c09c                	sw	a5,0(s1)
     944:	84be                	mv	s1,a5
     946:	fe8047e3          	bgtz	s0,934 <core_list_mergesort+0x48>
     94a:	03405c63          	blez	s4,982 <core_list_mergesort+0x96>
     94e:	02098c63          	beqz	s3,986 <core_list_mergesort+0x9a>
     952:	e819                	bnez	s0,968 <core_list_mergesort+0x7c>
     954:	87ce                	mv	a5,s3
     956:	1a7d                	add	s4,s4,-1
     958:	0009a983          	lw	s3,0(s3)
     95c:	f0fd                	bnez	s1,942 <core_list_mergesort+0x56>
     95e:	8b3e                	mv	s6,a5
     960:	84be                	mv	s1,a5
     962:	b7d5                	j	946 <core_list_mergesort+0x5a>
     964:	fc098ae3          	beqz	s3,938 <core_list_mergesort+0x4c>
     968:	0049a583          	lw	a1,4(s3)
     96c:	00492503          	lw	a0,4(s2)
     970:	865e                	mv	a2,s7
     972:	9c02                	jalr	s8
     974:	fca052e3          	blez	a0,938 <core_list_mergesort+0x4c>
     978:	87ce                	mv	a5,s3
     97a:	1a7d                	add	s4,s4,-1
     97c:	0009a983          	lw	s3,0(s3)
     980:	b7c1                	j	940 <core_list_mergesort+0x54>
     982:	f8099ce3          	bnez	s3,91a <core_list_mergesort+0x2e>
     986:	0004a023          	sw	zero,0(s1)
     98a:	01ac8963          	beq	s9,s10,99c <core_list_mergesort+0xb0>
     98e:	89da                	mv	s3,s6
     990:	0a86                	sll	s5,s5,0x1
     992:	f80991e3          	bnez	s3,914 <core_list_mergesort+0x28>
     996:	00002023          	sw	zero,0(zero) # 0 <_vectors_start>
     99a:	9002                	ebreak
     99c:	50b2                	lw	ra,44(sp)
     99e:	5422                	lw	s0,40(sp)
     9a0:	5492                	lw	s1,36(sp)
     9a2:	5902                	lw	s2,32(sp)
     9a4:	49f2                	lw	s3,28(sp)
     9a6:	4a62                	lw	s4,24(sp)
     9a8:	4ad2                	lw	s5,20(sp)
     9aa:	4bb2                	lw	s7,12(sp)
     9ac:	4c22                	lw	s8,8(sp)
     9ae:	4c92                	lw	s9,4(sp)
     9b0:	4d02                	lw	s10,0(sp)
     9b2:	855a                	mv	a0,s6
     9b4:	4b42                	lw	s6,16(sp)
     9b6:	6145                	add	sp,sp,48
     9b8:	8082                	ret

000009ba <core_bench_list>:
     9ba:	862a                	mv	a2,a0
     9bc:	00451503          	lh	a0,4(a0)
     9c0:	1101                	add	sp,sp,-32
     9c2:	cc22                	sw	s0,24(sp)
     9c4:	ca26                	sw	s1,20(sp)
     9c6:	ce06                	sw	ra,28(sp)
     9c8:	c84a                	sw	s2,16(sp)
     9ca:	c64e                	sw	s3,12(sp)
     9cc:	c452                	sw	s4,8(sp)
     9ce:	c256                	sw	s5,4(sp)
     9d0:	5240                	lw	s0,36(a2)
     9d2:	84ae                	mv	s1,a1
     9d4:	1aa05d63          	blez	a0,b8e <core_bench_list+0x1d4>
     9d8:	4881                	li	a7,0
     9da:	4e01                	li	t3,0
     9dc:	4301                	li	t1,0
     9de:	4801                	li	a6,0
     9e0:	0ff8fa13          	zext.b	s4,a7
     9e4:	1404ca63          	bltz	s1,b38 <core_bench_list+0x17e>
     9e8:	1a040663          	beqz	s0,b94 <core_bench_list+0x1da>
     9ec:	87a2                	mv	a5,s0
     9ee:	a019                	j	9f4 <core_bench_list+0x3a>
     9f0:	439c                	lw	a5,0(a5)
     9f2:	c791                	beqz	a5,9fe <core_bench_list+0x44>
     9f4:	43d8                	lw	a4,4(a5)
     9f6:	00271703          	lh	a4,2(a4)
     9fa:	fe971be3          	bne	a4,s1,9f0 <core_bench_list+0x36>
     9fe:	4681                	li	a3,0
     a00:	a011                	j	a04 <core_bench_list+0x4a>
     a02:	843a                	mv	s0,a4
     a04:	4018                	lw	a4,0(s0)
     a06:	c014                	sw	a3,0(s0)
     a08:	86a2                	mv	a3,s0
     a0a:	ff65                	bnez	a4,a02 <core_bench_list+0x48>
     a0c:	14078263          	beqz	a5,b50 <core_bench_list+0x196>
     a10:	43d8                	lw	a4,4(a5)
     a12:	00071703          	lh	a4,0(a4)
     a16:	00177693          	and	a3,a4,1
     a1a:	ca81                	beqz	a3,a2a <core_bench_list+0x70>
     a1c:	8725                	sra	a4,a4,0x9
     a1e:	8b05                	and	a4,a4,1
     a20:	9742                	add	a4,a4,a6
     a22:	01071813          	sll	a6,a4,0x10
     a26:	01085813          	srl	a6,a6,0x10
     a2a:	4398                	lw	a4,0(a5)
     a2c:	c711                	beqz	a4,a38 <core_bench_list+0x7e>
     a2e:	4314                	lw	a3,0(a4)
     a30:	c394                	sw	a3,0(a5)
     a32:	401c                	lw	a5,0(s0)
     a34:	c31c                	sw	a5,0(a4)
     a36:	c018                	sw	a4,0(s0)
     a38:	0305                	add	t1,t1,1
     a3a:	0342                	sll	t1,t1,0x10
     a3c:	01035313          	srl	t1,t1,0x10
     a40:	0004c563          	bltz	s1,a4a <core_bench_list+0x90>
     a44:	0485                	add	s1,s1,1
     a46:	04c2                	sll	s1,s1,0x10
     a48:	84c1                	sra	s1,s1,0x10
     a4a:	0885                	add	a7,a7,1
     a4c:	08c2                	sll	a7,a7,0x10
     a4e:	4108d893          	sra	a7,a7,0x10
     a52:	f91517e3          	bne	a0,a7,9e0 <core_bench_list+0x26>
     a56:	00231793          	sll	a5,t1,0x2
     a5a:	41c787b3          	sub	a5,a5,t3
     a5e:	983e                	add	a6,a6,a5
     a60:	01081913          	sll	s2,a6,0x10
     a64:	01095913          	srl	s2,s2,0x10
     a68:	00b05963          	blez	a1,a7a <core_bench_list+0xc0>
     a6c:	8522                	mv	a0,s0
     a6e:	00000597          	auipc	a1,0x0
     a72:	d8658593          	add	a1,a1,-634 # 7f4 <cmp_complex>
     a76:	3d9d                	jal	8ec <core_list_mergesort>
     a78:	842a                	mv	s0,a0
     a7a:	401c                	lw	a5,0(s0)
     a7c:	89a2                	mv	s3,s0
     a7e:	0007aa83          	lw	s5,0(a5)
     a82:	43d8                	lw	a4,4(a5)
     a84:	004aa603          	lw	a2,4(s5)
     a88:	000aa683          	lw	a3,0(s5)
     a8c:	c3d0                	sw	a2,4(a5)
     a8e:	00eaa223          	sw	a4,4(s5)
     a92:	c394                	sw	a3,0(a5)
     a94:	000aa023          	sw	zero,0(s5)
     a98:	0004d763          	bgez	s1,aa6 <core_bench_list+0xec>
     a9c:	a079                	j	b2a <core_bench_list+0x170>
     a9e:	0009a983          	lw	s3,0(s3)
     aa2:	0c098663          	beqz	s3,b6e <core_bench_list+0x1b4>
     aa6:	0049a783          	lw	a5,4(s3)
     aaa:	00279783          	lh	a5,2(a5)
     aae:	fe9798e3          	bne	a5,s1,a9e <core_bench_list+0xe4>
     ab2:	405c                	lw	a5,4(s0)
     ab4:	85ca                	mv	a1,s2
     ab6:	00079503          	lh	a0,0(a5)
     aba:	53b000ef          	jal	17f4 <crc16>
     abe:	0009a983          	lw	s3,0(s3)
     ac2:	892a                	mv	s2,a0
     ac4:	fe0997e3          	bnez	s3,ab2 <core_bench_list+0xf8>
     ac8:	00042983          	lw	s3,0(s0)
     acc:	004aa703          	lw	a4,4(s5)
     ad0:	0049a683          	lw	a3,4(s3)
     ad4:	0009a783          	lw	a5,0(s3)
     ad8:	8522                	mv	a0,s0
     ada:	00daa223          	sw	a3,4(s5)
     ade:	00e9a223          	sw	a4,4(s3)
     ae2:	00faa023          	sw	a5,0(s5)
     ae6:	4601                	li	a2,0
     ae8:	0159a023          	sw	s5,0(s3)
     aec:	00000597          	auipc	a1,0x0
     af0:	bf458593          	add	a1,a1,-1036 # 6e0 <cmp_idx>
     af4:	3be5                	jal	8ec <core_list_mergesort>
     af6:	4100                	lw	s0,0(a0)
     af8:	84aa                	mv	s1,a0
     afa:	c811                	beqz	s0,b0e <core_bench_list+0x154>
     afc:	40dc                	lw	a5,4(s1)
     afe:	85ca                	mv	a1,s2
     b00:	00079503          	lh	a0,0(a5)
     b04:	4f1000ef          	jal	17f4 <crc16>
     b08:	4000                	lw	s0,0(s0)
     b0a:	892a                	mv	s2,a0
     b0c:	f865                	bnez	s0,afc <core_bench_list+0x142>
     b0e:	40f2                	lw	ra,28(sp)
     b10:	4462                	lw	s0,24(sp)
     b12:	44d2                	lw	s1,20(sp)
     b14:	49b2                	lw	s3,12(sp)
     b16:	4a22                	lw	s4,8(sp)
     b18:	4a92                	lw	s5,4(sp)
     b1a:	854a                	mv	a0,s2
     b1c:	4942                	lw	s2,16(sp)
     b1e:	6105                	add	sp,sp,32
     b20:	8082                	ret
     b22:	0009a983          	lw	s3,0(s3)
     b26:	04098463          	beqz	s3,b6e <core_bench_list+0x1b4>
     b2a:	0049a783          	lw	a5,4(s3)
     b2e:	0007c783          	lbu	a5,0(a5)
     b32:	fefa18e3          	bne	s4,a5,b22 <core_bench_list+0x168>
     b36:	bfb5                	j	ab2 <core_bench_list+0xf8>
     b38:	cc31                	beqz	s0,b94 <core_bench_list+0x1da>
     b3a:	87a2                	mv	a5,s0
     b3c:	a021                	j	b44 <core_bench_list+0x18a>
     b3e:	439c                	lw	a5,0(a5)
     b40:	ea078fe3          	beqz	a5,9fe <core_bench_list+0x44>
     b44:	43d8                	lw	a4,4(a5)
     b46:	00074703          	lbu	a4,0(a4)
     b4a:	feea1ae3          	bne	s4,a4,b3e <core_bench_list+0x184>
     b4e:	bd45                	j	9fe <core_bench_list+0x44>
     b50:	401c                	lw	a5,0(s0)
     b52:	0e05                	add	t3,t3,1
     b54:	0e42                	sll	t3,t3,0x10
     b56:	43dc                	lw	a5,4(a5)
     b58:	010e5e13          	srl	t3,t3,0x10
     b5c:	00178783          	lb	a5,1(a5)
     b60:	8b85                	and	a5,a5,1
     b62:	97c2                	add	a5,a5,a6
     b64:	01079813          	sll	a6,a5,0x10
     b68:	01085813          	srl	a6,a6,0x10
     b6c:	bdd1                	j	a40 <core_bench_list+0x86>
     b6e:	00042983          	lw	s3,0(s0)
     b72:	f4098fe3          	beqz	s3,ad0 <core_bench_list+0x116>
     b76:	405c                	lw	a5,4(s0)
     b78:	85ca                	mv	a1,s2
     b7a:	00079503          	lh	a0,0(a5)
     b7e:	477000ef          	jal	17f4 <crc16>
     b82:	0009a983          	lw	s3,0(s3)
     b86:	892a                	mv	s2,a0
     b88:	f20995e3          	bnez	s3,ab2 <core_bench_list+0xf8>
     b8c:	bf35                	j	ac8 <core_bench_list+0x10e>
     b8e:	4901                	li	s2,0
     b90:	4a01                	li	s4,0
     b92:	bdd9                	j	a68 <core_bench_list+0xae>
     b94:	00002783          	lw	a5,0(zero) # 0 <_vectors_start>
     b98:	9002                	ebreak

00000b9a <core_list_init>:
     b9a:	47d1                	li	a5,20
     b9c:	02f55e33          	divu	t3,a0,a5
     ba0:	77e1                	lui	a5,0xffff8
     ba2:	0005a023          	sw	zero,0(a1)
     ba6:	08078713          	add	a4,a5,128 # ffff8080 <_stack_start+0xffef8080>
     baa:	01058693          	add	a3,a1,16
     bae:	852e                	mv	a0,a1
     bb0:	00858313          	add	t1,a1,8
     bb4:	1e79                	add	t3,t3,-2
     bb6:	003e1f13          	sll	t5,t3,0x3
     bba:	9f2e                	add	t5,t5,a1
     bbc:	01e5a223          	sw	t5,4(a1)
     bc0:	002e1f93          	sll	t6,t3,0x2
     bc4:	00ef1023          	sh	a4,0(t5)
     bc8:	000f1123          	sh	zero,2(t5)
     bcc:	9ffa                	add	t6,t6,t5
     bce:	004f0713          	add	a4,t5,4
     bd2:	0fe6fc63          	bgeu	a3,t5,cca <core_list_init+0x130>
     bd6:	008f0893          	add	a7,t5,8
     bda:	0ff8f863          	bgeu	a7,t6,cca <core_list_init+0x130>
     bde:	c5d8                	sw	a4,12(a1)
     be0:	0005a423          	sw	zero,8(a1)
     be4:	0065a023          	sw	t1,0(a1)
     be8:	fff7c793          	not	a5,a5
     bec:	577d                	li	a4,-1
     bee:	00ef1223          	sh	a4,4(t5)
     bf2:	00ff1323          	sh	a5,6(t5)
     bf6:	040e0e63          	beqz	t3,c52 <core_list_init+0xb8>
     bfa:	01061293          	sll	t0,a2,0x10
     bfe:	73e1                	lui	t2,0xffff8
     c00:	0102d293          	srl	t0,t0,0x10
     c04:	4801                	li	a6,0
     c06:	fff3c393          	not	t2,t2
     c0a:	01081713          	sll	a4,a6,0x10
     c0e:	8341                	srl	a4,a4,0x10
     c10:	00e2c7b3          	xor	a5,t0,a4
     c14:	078e                	sll	a5,a5,0x3
     c16:	8b1d                	and	a4,a4,7
     c18:	0787f793          	and	a5,a5,120
     c1c:	8fd9                	or	a5,a5,a4
     c1e:	00879713          	sll	a4,a5,0x8
     c22:	00868593          	add	a1,a3,8
     c26:	0805                	add	a6,a6,1
     c28:	00488e93          	add	t4,a7,4
     c2c:	8f5d                	or	a4,a4,a5
     c2e:	03e5f063          	bgeu	a1,t5,c4e <core_list_init+0xb4>
     c32:	01fefe63          	bgeu	t4,t6,c4e <core_list_init+0xb4>
     c36:	0066a023          	sw	t1,0(a3)
     c3a:	c114                	sw	a3,0(a0)
     c3c:	0116a223          	sw	a7,4(a3)
     c40:	00e89023          	sh	a4,0(a7)
     c44:	00789123          	sh	t2,2(a7)
     c48:	8336                	mv	t1,a3
     c4a:	88f6                	mv	a7,t4
     c4c:	86ae                	mv	a3,a1
     c4e:	fb0e1ee3          	bne	t3,a6,c0a <core_list_init+0x70>
     c52:	00032803          	lw	a6,0(t1)
     c56:	06080463          	beqz	a6,cbe <core_list_init+0x124>
     c5a:	4795                	li	a5,5
     c5c:	6e91                	lui	t4,0x4
     c5e:	02fe5e33          	divu	t3,t3,a5
     c62:	20000713          	li	a4,512
     c66:	4685                	li	a3,1
     c68:	1efd                	add	t4,t4,-1 # 3fff <_bss_end+0x135b>
     c6a:	a00d                	j	c8c <core_list_init+0xf2>
     c6c:	01069793          	sll	a5,a3,0x10
     c70:	00082883          	lw	a7,0(a6)
     c74:	87c1                	sra	a5,a5,0x10
     c76:	10070713          	add	a4,a4,256
     c7a:	0742                	sll	a4,a4,0x10
     c7c:	00f59123          	sh	a5,2(a1)
     c80:	8342                	mv	t1,a6
     c82:	0685                	add	a3,a3,1
     c84:	8341                	srl	a4,a4,0x10
     c86:	02088c63          	beqz	a7,cbe <core_list_init+0x124>
     c8a:	8846                	mv	a6,a7
     c8c:	00c6c5b3          	xor	a1,a3,a2
     c90:	70077793          	and	a5,a4,1792
     c94:	8fcd                	or	a5,a5,a1
     c96:	01d7f7b3          	and	a5,a5,t4
     c9a:	00432583          	lw	a1,4(t1)
     c9e:	fdc6e7e3          	bltu	a3,t3,c6c <core_list_init+0xd2>
     ca2:	00082883          	lw	a7,0(a6)
     ca6:	07c2                	sll	a5,a5,0x10
     ca8:	87c1                	sra	a5,a5,0x10
     caa:	10070713          	add	a4,a4,256
     cae:	0742                	sll	a4,a4,0x10
     cb0:	00f59123          	sh	a5,2(a1)
     cb4:	8342                	mv	t1,a6
     cb6:	0685                	add	a3,a3,1
     cb8:	8341                	srl	a4,a4,0x10
     cba:	fc0898e3          	bnez	a7,c8a <core_list_init+0xf0>
     cbe:	4601                	li	a2,0
     cc0:	00000597          	auipc	a1,0x0
     cc4:	a2058593          	add	a1,a1,-1504 # 6e0 <cmp_idx>
     cc8:	b115                	j	8ec <core_list_mergesort>
     cca:	869a                	mv	a3,t1
     ccc:	88ba                	mv	a7,a4
     cce:	4301                	li	t1,0
     cd0:	b71d                	j	bf6 <core_list_init+0x5c>

00000cd2 <core_init_matrix>:
     cd2:	1141                	add	sp,sp,-16
     cd4:	c622                	sw	s0,12(sp)
     cd6:	c426                	sw	s1,8(sp)
     cd8:	c24a                	sw	s2,4(sp)
     cda:	882a                	mv	a6,a0
     cdc:	e211                	bnez	a2,ce0 <core_init_matrix+0xe>
     cde:	4605                	li	a2,1
     ce0:	058d                	add	a1,a1,3
     ce2:	ffc5f393          	and	t2,a1,-4
     ce6:	4781                	li	a5,0
     ce8:	00238913          	add	s2,t2,2 # ffff8002 <_stack_start+0xffef8002>
     cec:	557d                	li	a0,-1
     cee:	4409                	li	s0,2
     cf0:	02080063          	beqz	a6,d10 <core_init_matrix+0x3e>
     cf4:	853e                	mv	a0,a5
     cf6:	0785                	add	a5,a5,1
     cf8:	02f78733          	mul	a4,a5,a5
     cfc:	070e                	sll	a4,a4,0x3
     cfe:	ff076be3          	bltu	a4,a6,cf4 <core_init_matrix+0x22>
     d02:	02a50433          	mul	s0,a0,a0
     d06:	4701                	li	a4,0
     d08:	0406                	sll	s0,s0,0x1
     d0a:	00838933          	add	s2,t2,s0
     d0e:	c13d                	beqz	a0,d74 <core_init_matrix+0xa2>
     d10:	6e41                	lui	t3,0x10
     d12:	00150313          	add	t1,a0,1
     d16:	00151493          	sll	s1,a0,0x1
     d1a:	8fca                	mv	t6,s2
     d1c:	4f01                	li	t5,0
     d1e:	4705                	li	a4,1
     d20:	41238eb3          	sub	t4,t2,s2
     d24:	1e7d                	add	t3,t3,-1 # ffff <_stack_len+0x7fff>
     d26:	82ba                	mv	t0,a4
     d28:	887e                	mv	a6,t6
     d2a:	02e60633          	mul	a2,a2,a4
     d2e:	01071793          	sll	a5,a4,0x10
     d32:	83c1                	srl	a5,a5,0x10
     d34:	010e88b3          	add	a7,t4,a6
     d38:	0809                	add	a6,a6,2
     d3a:	0705                	add	a4,a4,1
     d3c:	41f65593          	sra	a1,a2,0x1f
     d40:	81c1                	srl	a1,a1,0x10
     d42:	962e                	add	a2,a2,a1
     d44:	01c67633          	and	a2,a2,t3
     d48:	8e0d                	sub	a2,a2,a1
     d4a:	00c785b3          	add	a1,a5,a2
     d4e:	05c2                	sll	a1,a1,0x10
     d50:	81c1                	srl	a1,a1,0x10
     d52:	97ae                	add	a5,a5,a1
     d54:	feb81f23          	sh	a1,-2(a6)
     d58:	0ff7f793          	zext.b	a5,a5
     d5c:	00f89023          	sh	a5,0(a7)
     d60:	fc6715e3          	bne	a4,t1,d2a <core_init_matrix+0x58>
     d64:	0f05                	add	t5,t5,1
     d66:	00a28733          	add	a4,t0,a0
     d6a:	932a                	add	t1,t1,a0
     d6c:	9fa6                	add	t6,t6,s1
     d6e:	faaf6ce3          	bltu	t5,a0,d26 <core_init_matrix+0x54>
     d72:	872a                	mv	a4,a0
     d74:	008907b3          	add	a5,s2,s0
     d78:	078d                	add	a5,a5,3
     d7a:	4432                	lw	s0,12(sp)
     d7c:	9bf1                	and	a5,a5,-4
     d7e:	0126a423          	sw	s2,8(a3)
     d82:	0076a223          	sw	t2,4(a3)
     d86:	c6dc                	sw	a5,12(a3)
     d88:	c298                	sw	a4,0(a3)
     d8a:	44a2                	lw	s1,8(sp)
     d8c:	4912                	lw	s2,4(sp)
     d8e:	0141                	add	sp,sp,16
     d90:	8082                	ret

00000d92 <matrix_sum>:
     d92:	8eaa                	mv	t4,a0
     d94:	cd31                	beqz	a0,df0 <matrix_sum+0x5e>
     d96:	00251f93          	sll	t6,a0,0x2
     d9a:	40a00f33          	neg	t5,a0
     d9e:	01f588b3          	add	a7,a1,t6
     da2:	4e01                	li	t3,0
     da4:	4501                	li	a0,0
     da6:	4701                	li	a4,0
     da8:	4581                	li	a1,0
     daa:	0f0e                	sll	t5,t5,0x3
     dac:	41f88333          	sub	t1,a7,t6
     db0:	879a                	mv	a5,t1
     db2:	a031                	j	dbe <matrix_sum+0x2c>
     db4:	0542                	sll	a0,a0,0x10
     db6:	0791                	add	a5,a5,4
     db8:	8541                	sra	a0,a0,0x10
     dba:	02f88563          	beq	a7,a5,de4 <matrix_sum+0x52>
     dbe:	86ba                	mv	a3,a4
     dc0:	4398                	lw	a4,0(a5)
     dc2:	0542                	sll	a0,a0,0x10
     dc4:	8141                	srl	a0,a0,0x10
     dc6:	00e6a6b3          	slt	a3,a3,a4
     dca:	95ba                	add	a1,a1,a4
     dcc:	00a50813          	add	a6,a0,10
     dd0:	9536                	add	a0,a0,a3
     dd2:	feb651e3          	bge	a2,a1,db4 <matrix_sum+0x22>
     dd6:	01081513          	sll	a0,a6,0x10
     dda:	0791                	add	a5,a5,4
     ddc:	8541                	sra	a0,a0,0x10
     dde:	4581                	li	a1,0
     de0:	fcf89fe3          	bne	a7,a5,dbe <matrix_sum+0x2c>
     de4:	0e05                	add	t3,t3,1
     de6:	41e308b3          	sub	a7,t1,t5
     dea:	fdce91e3          	bne	t4,t3,dac <matrix_sum+0x1a>
     dee:	8082                	ret
     df0:	4501                	li	a0,0
     df2:	8082                	ret

00000df4 <matrix_mul_const>:
     df4:	c121                	beqz	a0,e34 <matrix_mul_const+0x40>
     df6:	00151f13          	sll	t5,a0,0x1
     dfa:	40a00eb3          	neg	t4,a0
     dfe:	01e60833          	add	a6,a2,t5
     e02:	4301                	li	t1,0
     e04:	4e01                	li	t3,0
     e06:	0e8a                	sll	t4,t4,0x2
     e08:	41e808b3          	sub	a7,a6,t5
     e0c:	00231613          	sll	a2,t1,0x2
     e10:	962e                	add	a2,a2,a1
     e12:	87c6                	mv	a5,a7
     e14:	00079703          	lh	a4,0(a5)
     e18:	0611                	add	a2,a2,4
     e1a:	0789                	add	a5,a5,2
     e1c:	02d70733          	mul	a4,a4,a3
     e20:	fee62e23          	sw	a4,-4(a2)
     e24:	fef818e3          	bne	a6,a5,e14 <matrix_mul_const+0x20>
     e28:	0e05                	add	t3,t3,1
     e2a:	932a                	add	t1,t1,a0
     e2c:	41d88833          	sub	a6,a7,t4
     e30:	fdc51ce3          	bne	a0,t3,e08 <matrix_mul_const+0x14>
     e34:	8082                	ret

00000e36 <matrix_add_const>:
     e36:	c91d                	beqz	a0,e6c <matrix_add_const+0x36>
     e38:	00151313          	sll	t1,a0,0x1
     e3c:	40a008b3          	neg	a7,a0
     e40:	0642                	sll	a2,a2,0x10
     e42:	8241                	srl	a2,a2,0x10
     e44:	006586b3          	add	a3,a1,t1
     e48:	4801                	li	a6,0
     e4a:	088a                	sll	a7,a7,0x2
     e4c:	406685b3          	sub	a1,a3,t1
     e50:	87ae                	mv	a5,a1
     e52:	0007d703          	lhu	a4,0(a5)
     e56:	0789                	add	a5,a5,2
     e58:	9732                	add	a4,a4,a2
     e5a:	fee79f23          	sh	a4,-2(a5)
     e5e:	fef69ae3          	bne	a3,a5,e52 <matrix_add_const+0x1c>
     e62:	0805                	add	a6,a6,1
     e64:	411586b3          	sub	a3,a1,a7
     e68:	ff0512e3          	bne	a0,a6,e4c <matrix_add_const+0x16>
     e6c:	8082                	ret

00000e6e <matrix_mul_vect>:
     e6e:	cd15                	beqz	a0,eaa <matrix_mul_vect+0x3c>
     e70:	00251f13          	sll	t5,a0,0x2
     e74:	00151e13          	sll	t3,a0,0x1
     e78:	9f2e                	add	t5,t5,a1
     e7a:	9e36                	add	t3,t3,a3
     e7c:	4e81                	li	t4,0
     e7e:	001e9813          	sll	a6,t4,0x1
     e82:	9832                	add	a6,a6,a2
     e84:	87b6                	mv	a5,a3
     e86:	4881                	li	a7,0
     e88:	00081703          	lh	a4,0(a6)
     e8c:	00079303          	lh	t1,0(a5)
     e90:	0789                	add	a5,a5,2
     e92:	0809                	add	a6,a6,2
     e94:	02670733          	mul	a4,a4,t1
     e98:	98ba                	add	a7,a7,a4
     e9a:	fefe17e3          	bne	t3,a5,e88 <matrix_mul_vect+0x1a>
     e9e:	0115a023          	sw	a7,0(a1)
     ea2:	0591                	add	a1,a1,4
     ea4:	9eaa                	add	t4,t4,a0
     ea6:	fcbf1ce3          	bne	t5,a1,e7e <matrix_mul_vect+0x10>
     eaa:	8082                	ret

00000eac <matrix_mul_matrix>:
     eac:	c52d                	beqz	a0,f16 <matrix_mul_matrix+0x6a>
     eae:	1141                	add	sp,sp,-16
     eb0:	8f2a                	mv	t5,a0
     eb2:	0506                	sll	a0,a0,0x1
     eb4:	c622                	sw	s0,12(sp)
     eb6:	83ae                	mv	t2,a1
     eb8:	8436                	mv	s0,a3
     eba:	8eb2                	mv	t4,a2
     ebc:	00a60833          	add	a6,a2,a0
     ec0:	4f81                	li	t6,0
     ec2:	4281                	li	t0,0
     ec4:	002f9893          	sll	a7,t6,0x2
     ec8:	989e                	add	a7,a7,t2
     eca:	8322                	mv	t1,s0
     ecc:	4e01                	li	t3,0
     ece:	869a                	mv	a3,t1
     ed0:	87f6                	mv	a5,t4
     ed2:	4601                	li	a2,0
     ed4:	00079703          	lh	a4,0(a5)
     ed8:	00069583          	lh	a1,0(a3)
     edc:	0789                	add	a5,a5,2
     ede:	96aa                	add	a3,a3,a0
     ee0:	02b70733          	mul	a4,a4,a1
     ee4:	963a                	add	a2,a2,a4
     ee6:	fef817e3          	bne	a6,a5,ed4 <matrix_mul_matrix+0x28>
     eea:	00c8a023          	sw	a2,0(a7)
     eee:	001e0793          	add	a5,t3,1
     ef2:	0891                	add	a7,a7,4
     ef4:	0309                	add	t1,t1,2
     ef6:	00ff0463          	beq	t5,a5,efe <matrix_mul_matrix+0x52>
     efa:	8e3e                	mv	t3,a5
     efc:	bfc9                	j	ece <matrix_mul_matrix+0x22>
     efe:	00128793          	add	a5,t0,1
     f02:	9eaa                	add	t4,t4,a0
     f04:	9ffa                	add	t6,t6,t5
     f06:	982a                	add	a6,a6,a0
     f08:	01c28463          	beq	t0,t3,f10 <matrix_mul_matrix+0x64>
     f0c:	82be                	mv	t0,a5
     f0e:	bf5d                	j	ec4 <matrix_mul_matrix+0x18>
     f10:	4432                	lw	s0,12(sp)
     f12:	0141                	add	sp,sp,16
     f14:	8082                	ret
     f16:	8082                	ret

00000f18 <matrix_mul_matrix_bitextract>:
     f18:	cd2d                	beqz	a0,f92 <matrix_mul_matrix_bitextract+0x7a>
     f1a:	1141                	add	sp,sp,-16
     f1c:	8f2a                	mv	t5,a0
     f1e:	0506                	sll	a0,a0,0x1
     f20:	c622                	sw	s0,12(sp)
     f22:	83ae                	mv	t2,a1
     f24:	8436                	mv	s0,a3
     f26:	8eb2                	mv	t4,a2
     f28:	00a60833          	add	a6,a2,a0
     f2c:	4f81                	li	t6,0
     f2e:	4281                	li	t0,0
     f30:	002f9893          	sll	a7,t6,0x2
     f34:	989e                	add	a7,a7,t2
     f36:	8322                	mv	t1,s0
     f38:	4e01                	li	t3,0
     f3a:	861a                	mv	a2,t1
     f3c:	86f6                	mv	a3,t4
     f3e:	4581                	li	a1,0
     f40:	00061703          	lh	a4,0(a2)
     f44:	00069783          	lh	a5,0(a3)
     f48:	0689                	add	a3,a3,2
     f4a:	962a                	add	a2,a2,a0
     f4c:	02e787b3          	mul	a5,a5,a4
     f50:	4027d713          	sra	a4,a5,0x2
     f54:	8795                	sra	a5,a5,0x5
     f56:	8b3d                	and	a4,a4,15
     f58:	07f7f793          	and	a5,a5,127
     f5c:	02f707b3          	mul	a5,a4,a5
     f60:	95be                	add	a1,a1,a5
     f62:	fcd81fe3          	bne	a6,a3,f40 <matrix_mul_matrix_bitextract+0x28>
     f66:	00b8a023          	sw	a1,0(a7)
     f6a:	001e0793          	add	a5,t3,1
     f6e:	0891                	add	a7,a7,4
     f70:	0309                	add	t1,t1,2
     f72:	00ff0463          	beq	t5,a5,f7a <matrix_mul_matrix_bitextract+0x62>
     f76:	8e3e                	mv	t3,a5
     f78:	b7c9                	j	f3a <matrix_mul_matrix_bitextract+0x22>
     f7a:	00128793          	add	a5,t0,1
     f7e:	9eaa                	add	t4,t4,a0
     f80:	9ffa                	add	t6,t6,t5
     f82:	982a                	add	a6,a6,a0
     f84:	01c28463          	beq	t0,t3,f8c <matrix_mul_matrix_bitextract+0x74>
     f88:	82be                	mv	t0,a5
     f8a:	b75d                	j	f30 <matrix_mul_matrix_bitextract+0x18>
     f8c:	4432                	lw	s0,12(sp)
     f8e:	0141                	add	sp,sp,16
     f90:	8082                	ret
     f92:	8082                	ret

00000f94 <matrix_test>:
     f94:	7139                	add	sp,sp,-64
     f96:	dc22                	sw	s0,56(sp)
     f98:	da26                	sw	s1,52(sp)
     f9a:	d05a                	sw	s6,32(sp)
     f9c:	de06                	sw	ra,60(sp)
     f9e:	d84a                	sw	s2,48(sp)
     fa0:	d64e                	sw	s3,44(sp)
     fa2:	d452                	sw	s4,40(sp)
     fa4:	d256                	sw	s5,36(sp)
     fa6:	ce5e                	sw	s7,28(sp)
     fa8:	cc62                	sw	s8,24(sp)
     faa:	ca66                	sw	s9,20(sp)
     fac:	c86a                	sw	s10,16(sp)
     fae:	c66e                	sw	s11,12(sp)
     fb0:	8b2e                	mv	s6,a1
     fb2:	8432                	mv	s0,a2
     fb4:	84b6                	mv	s1,a3
     fb6:	24050163          	beqz	a0,11f8 <matrix_test+0x264>
     fba:	00151f13          	sll	t5,a0,0x1
     fbe:	01e605b3          	add	a1,a2,t5
     fc2:	40a00cb3          	neg	s9,a0
     fc6:	01071993          	sll	s3,a4,0x10
     fca:	8daa                	mv	s11,a0
     fcc:	0109d993          	srl	s3,s3,0x10
     fd0:	862e                	mv	a2,a1
     fd2:	4801                	li	a6,0
     fd4:	002c9893          	sll	a7,s9,0x2
     fd8:	41e60333          	sub	t1,a2,t5
     fdc:	879a                	mv	a5,t1
     fde:	0007d683          	lhu	a3,0(a5)
     fe2:	0789                	add	a5,a5,2
     fe4:	96ce                	add	a3,a3,s3
     fe6:	fed79f23          	sh	a3,-2(a5)
     fea:	fec79ae3          	bne	a5,a2,fde <matrix_test+0x4a>
     fee:	00180513          	add	a0,a6,1
     ff2:	41130633          	sub	a2,t1,a7
     ff6:	00ad8463          	beq	s11,a0,ffe <matrix_test+0x6a>
     ffa:	882a                	mv	a6,a0
     ffc:	bff1                	j	fd8 <matrix_test+0x44>
     ffe:	4e01                	li	t3,0
    1000:	4e81                	li	t4,0
    1002:	41e58333          	sub	t1,a1,t5
    1006:	002e1613          	sll	a2,t3,0x2
    100a:	965a                	add	a2,a2,s6
    100c:	879a                	mv	a5,t1
    100e:	00079683          	lh	a3,0(a5)
    1012:	0611                	add	a2,a2,4
    1014:	0789                	add	a5,a5,2
    1016:	02e686b3          	mul	a3,a3,a4
    101a:	fed62e23          	sw	a3,-4(a2)
    101e:	fef598e3          	bne	a1,a5,100e <matrix_test+0x7a>
    1022:	001e8793          	add	a5,t4,1
    1026:	9e2a                	add	t3,t3,a0
    1028:	411305b3          	sub	a1,t1,a7
    102c:	010e8463          	beq	t4,a6,1034 <matrix_test+0xa0>
    1030:	8ebe                	mv	t4,a5
    1032:	bfc1                	j	1002 <matrix_test+0x6e>
    1034:	40a00e33          	neg	t3,a0
    1038:	77fd                	lui	a5,0xfffff
    103a:	00f76933          	or	s2,a4,a5
    103e:	411b0333          	sub	t1,s6,a7
    1042:	4501                	li	a0,0
    1044:	4701                	li	a4,0
    1046:	4601                	li	a2,0
    1048:	4f01                	li	t5,0
    104a:	0e0e                	sll	t3,t3,0x3
    104c:	01130eb3          	add	t4,t1,a7
    1050:	87f6                	mv	a5,t4
    1052:	a031                	j	105e <matrix_test+0xca>
    1054:	0542                	sll	a0,a0,0x10
    1056:	0791                	add	a5,a5,4 # fffff004 <_stack_start+0xffeff004>
    1058:	8541                	sra	a0,a0,0x10
    105a:	02678563          	beq	a5,t1,1084 <matrix_test+0xf0>
    105e:	86ba                	mv	a3,a4
    1060:	4398                	lw	a4,0(a5)
    1062:	0542                	sll	a0,a0,0x10
    1064:	8141                	srl	a0,a0,0x10
    1066:	00e6a6b3          	slt	a3,a3,a4
    106a:	963a                	add	a2,a2,a4
    106c:	00a50593          	add	a1,a0,10
    1070:	9536                	add	a0,a0,a3
    1072:	fec951e3          	bge	s2,a2,1054 <matrix_test+0xc0>
    1076:	01059513          	sll	a0,a1,0x10
    107a:	0791                	add	a5,a5,4
    107c:	8541                	sra	a0,a0,0x10
    107e:	4601                	li	a2,0
    1080:	fc679fe3          	bne	a5,t1,105e <matrix_test+0xca>
    1084:	001f0793          	add	a5,t5,1
    1088:	41ce8333          	sub	t1,t4,t3
    108c:	01e80463          	beq	a6,t5,1094 <matrix_test+0x100>
    1090:	8f3e                	mv	t5,a5
    1092:	bf6d                	j	104c <matrix_test+0xb8>
    1094:	4581                	li	a1,0
    1096:	2fb9                	jal	17f4 <crc16>
    1098:	8622                	mv	a2,s0
    109a:	8baa                	mv	s7,a0
    109c:	86a6                	mv	a3,s1
    109e:	856e                	mv	a0,s11
    10a0:	85da                	mv	a1,s6
    10a2:	002d9a13          	sll	s4,s11,0x2
    10a6:	33e1                	jal	e6e <matrix_mul_vect>
    10a8:	9a5a                	add	s4,s4,s6
    10aa:	002c9c13          	sll	s8,s9,0x2
    10ae:	8852                	mv	a6,s4
    10b0:	4501                	li	a0,0
    10b2:	4701                	li	a4,0
    10b4:	4601                	li	a2,0
    10b6:	4a81                	li	s5,0
    10b8:	0c8e                	sll	s9,s9,0x3
    10ba:	010c08b3          	add	a7,s8,a6
    10be:	87c6                	mv	a5,a7
    10c0:	a031                	j	10cc <matrix_test+0x138>
    10c2:	0542                	sll	a0,a0,0x10
    10c4:	0791                	add	a5,a5,4
    10c6:	8541                	sra	a0,a0,0x10
    10c8:	03078563          	beq	a5,a6,10f2 <matrix_test+0x15e>
    10cc:	86ba                	mv	a3,a4
    10ce:	4398                	lw	a4,0(a5)
    10d0:	0542                	sll	a0,a0,0x10
    10d2:	8141                	srl	a0,a0,0x10
    10d4:	00e6a6b3          	slt	a3,a3,a4
    10d8:	963a                	add	a2,a2,a4
    10da:	00a50593          	add	a1,a0,10
    10de:	9536                	add	a0,a0,a3
    10e0:	fec951e3          	bge	s2,a2,10c2 <matrix_test+0x12e>
    10e4:	01059513          	sll	a0,a1,0x10
    10e8:	0791                	add	a5,a5,4
    10ea:	8541                	sra	a0,a0,0x10
    10ec:	4601                	li	a2,0
    10ee:	fd079fe3          	bne	a5,a6,10cc <matrix_test+0x138>
    10f2:	001a8d13          	add	s10,s5,1
    10f6:	41988833          	sub	a6,a7,s9
    10fa:	01ad8463          	beq	s11,s10,1102 <matrix_test+0x16e>
    10fe:	8aea                	mv	s5,s10
    1100:	bf6d                	j	10ba <matrix_test+0x126>
    1102:	85de                	mv	a1,s7
    1104:	2dc5                	jal	17f4 <crc16>
    1106:	8622                	mv	a2,s0
    1108:	8baa                	mv	s7,a0
    110a:	86a6                	mv	a3,s1
    110c:	856a                	mv	a0,s10
    110e:	85da                	mv	a1,s6
    1110:	3b71                	jal	eac <matrix_mul_matrix>
    1112:	8852                	mv	a6,s4
    1114:	4501                	li	a0,0
    1116:	4701                	li	a4,0
    1118:	4601                	li	a2,0
    111a:	4301                	li	t1,0
    111c:	018808b3          	add	a7,a6,s8
    1120:	87c6                	mv	a5,a7
    1122:	a031                	j	112e <matrix_test+0x19a>
    1124:	0542                	sll	a0,a0,0x10
    1126:	0791                	add	a5,a5,4
    1128:	8541                	sra	a0,a0,0x10
    112a:	02f80563          	beq	a6,a5,1154 <matrix_test+0x1c0>
    112e:	86ba                	mv	a3,a4
    1130:	4398                	lw	a4,0(a5)
    1132:	0542                	sll	a0,a0,0x10
    1134:	8141                	srl	a0,a0,0x10
    1136:	00e6a6b3          	slt	a3,a3,a4
    113a:	963a                	add	a2,a2,a4
    113c:	00a50593          	add	a1,a0,10
    1140:	9536                	add	a0,a0,a3
    1142:	fec951e3          	bge	s2,a2,1124 <matrix_test+0x190>
    1146:	01059513          	sll	a0,a1,0x10
    114a:	0791                	add	a5,a5,4
    114c:	8541                	sra	a0,a0,0x10
    114e:	4601                	li	a2,0
    1150:	fcf81fe3          	bne	a6,a5,112e <matrix_test+0x19a>
    1154:	00130793          	add	a5,t1,1
    1158:	41988833          	sub	a6,a7,s9
    115c:	01530463          	beq	t1,s5,1164 <matrix_test+0x1d0>
    1160:	833e                	mv	t1,a5
    1162:	bf6d                	j	111c <matrix_test+0x188>
    1164:	85de                	mv	a1,s7
    1166:	2579                	jal	17f4 <crc16>
    1168:	87aa                	mv	a5,a0
    116a:	86a6                	mv	a3,s1
    116c:	8622                	mv	a2,s0
    116e:	856a                	mv	a0,s10
    1170:	85da                	mv	a1,s6
    1172:	84be                	mv	s1,a5
    1174:	3355                	jal	f18 <matrix_mul_matrix_bitextract>
    1176:	4501                	li	a0,0
    1178:	4701                	li	a4,0
    117a:	4601                	li	a2,0
    117c:	4881                	li	a7,0
    117e:	018a0833          	add	a6,s4,s8
    1182:	87c2                	mv	a5,a6
    1184:	a031                	j	1190 <matrix_test+0x1fc>
    1186:	0542                	sll	a0,a0,0x10
    1188:	0791                	add	a5,a5,4
    118a:	8541                	sra	a0,a0,0x10
    118c:	02fa0563          	beq	s4,a5,11b6 <matrix_test+0x222>
    1190:	86ba                	mv	a3,a4
    1192:	4398                	lw	a4,0(a5)
    1194:	0542                	sll	a0,a0,0x10
    1196:	8141                	srl	a0,a0,0x10
    1198:	00e6a6b3          	slt	a3,a3,a4
    119c:	963a                	add	a2,a2,a4
    119e:	00a50593          	add	a1,a0,10
    11a2:	9536                	add	a0,a0,a3
    11a4:	fec951e3          	bge	s2,a2,1186 <matrix_test+0x1f2>
    11a8:	01059513          	sll	a0,a1,0x10
    11ac:	0791                	add	a5,a5,4
    11ae:	8541                	sra	a0,a0,0x10
    11b0:	4601                	li	a2,0
    11b2:	fcfa1fe3          	bne	s4,a5,1190 <matrix_test+0x1fc>
    11b6:	00188793          	add	a5,a7,1
    11ba:	41980a33          	sub	s4,a6,s9
    11be:	01588463          	beq	a7,s5,11c6 <matrix_test+0x232>
    11c2:	88be                	mv	a7,a5
    11c4:	bf6d                	j	117e <matrix_test+0x1ea>
    11c6:	85a6                	mv	a1,s1
    11c8:	2535                	jal	17f4 <crc16>
    11ca:	0d06                	sll	s10,s10,0x1
    11cc:	946a                	add	s0,s0,s10
    11ce:	4601                	li	a2,0
    11d0:	41a406b3          	sub	a3,s0,s10
    11d4:	87b6                	mv	a5,a3
    11d6:	0007d703          	lhu	a4,0(a5)
    11da:	0789                	add	a5,a5,2
    11dc:	41370733          	sub	a4,a4,s3
    11e0:	fee79f23          	sh	a4,-2(a5)
    11e4:	fe8799e3          	bne	a5,s0,11d6 <matrix_test+0x242>
    11e8:	00160793          	add	a5,a2,1
    11ec:	41868433          	sub	s0,a3,s8
    11f0:	05560263          	beq	a2,s5,1234 <matrix_test+0x2a0>
    11f4:	863e                	mv	a2,a5
    11f6:	bfe9                	j	11d0 <matrix_test+0x23c>
    11f8:	4581                	li	a1,0
    11fa:	2bed                	jal	17f4 <crc16>
    11fc:	8622                	mv	a2,s0
    11fe:	892a                	mv	s2,a0
    1200:	86a6                	mv	a3,s1
    1202:	4501                	li	a0,0
    1204:	85da                	mv	a1,s6
    1206:	31a5                	jal	e6e <matrix_mul_vect>
    1208:	85ca                	mv	a1,s2
    120a:	4501                	li	a0,0
    120c:	23e5                	jal	17f4 <crc16>
    120e:	8622                	mv	a2,s0
    1210:	86a6                	mv	a3,s1
    1212:	892a                	mv	s2,a0
    1214:	85da                	mv	a1,s6
    1216:	4501                	li	a0,0
    1218:	3951                	jal	eac <matrix_mul_matrix>
    121a:	85ca                	mv	a1,s2
    121c:	4501                	li	a0,0
    121e:	2bd9                	jal	17f4 <crc16>
    1220:	87aa                	mv	a5,a0
    1222:	8622                	mv	a2,s0
    1224:	4501                	li	a0,0
    1226:	85da                	mv	a1,s6
    1228:	86a6                	mv	a3,s1
    122a:	843e                	mv	s0,a5
    122c:	31f5                	jal	f18 <matrix_mul_matrix_bitextract>
    122e:	85a2                	mv	a1,s0
    1230:	4501                	li	a0,0
    1232:	23c9                	jal	17f4 <crc16>
    1234:	50f2                	lw	ra,60(sp)
    1236:	5462                	lw	s0,56(sp)
    1238:	0542                	sll	a0,a0,0x10
    123a:	54d2                	lw	s1,52(sp)
    123c:	5942                	lw	s2,48(sp)
    123e:	59b2                	lw	s3,44(sp)
    1240:	5a22                	lw	s4,40(sp)
    1242:	5a92                	lw	s5,36(sp)
    1244:	5b02                	lw	s6,32(sp)
    1246:	4bf2                	lw	s7,28(sp)
    1248:	4c62                	lw	s8,24(sp)
    124a:	4cd2                	lw	s9,20(sp)
    124c:	4d42                	lw	s10,16(sp)
    124e:	4db2                	lw	s11,12(sp)
    1250:	8541                	sra	a0,a0,0x10
    1252:	6121                	add	sp,sp,64
    1254:	8082                	ret

00001256 <core_bench_matrix>:
    1256:	1141                	add	sp,sp,-16
    1258:	c422                	sw	s0,8(sp)
    125a:	4514                	lw	a3,8(a0)
    125c:	8432                	mv	s0,a2
    125e:	872e                	mv	a4,a1
    1260:	4150                	lw	a2,4(a0)
    1262:	454c                	lw	a1,12(a0)
    1264:	4108                	lw	a0,0(a0)
    1266:	c606                	sw	ra,12(sp)
    1268:	3335                	jal	f94 <matrix_test>
    126a:	85a2                	mv	a1,s0
    126c:	4422                	lw	s0,8(sp)
    126e:	40b2                	lw	ra,12(sp)
    1270:	0141                	add	sp,sp,16
    1272:	a349                	j	17f4 <crc16>

00001274 <core_init_state>:
    1274:	fff50813          	add	a6,a0,-1
    1278:	4785                	li	a5,1
    127a:	0d07f263          	bgeu	a5,a6,133e <core_init_state+0xca>
    127e:	0585                	add	a1,a1,1
    1280:	05c2                	sll	a1,a1,0x10
    1282:	81c1                	srl	a1,a1,0x10
    1284:	1141                	add	sp,sp,-16
    1286:	0035d793          	srl	a5,a1,0x3
    128a:	c622                	sw	s0,12(sp)
    128c:	4e1d                	li	t3,7
    128e:	0075f693          	and	a3,a1,7
    1292:	4701                	li	a4,0
    1294:	00001e97          	auipc	t4,0x1
    1298:	c2ce8e93          	add	t4,t4,-980 # 1ec0 <intpat>
    129c:	4311                	li	t1,4
    129e:	4885                	li	a7,1
    12a0:	02c00f13          	li	t5,44
    12a4:	8b8d                	and	a5,a5,3
    12a6:	05c68d63          	beq	a3,t3,1300 <core_init_state+0x8c>
    12aa:	08d36563          	bltu	t1,a3,1334 <core_init_state+0xc0>
    12ae:	16f5                	add	a3,a3,-3
    12b0:	06c2                	sll	a3,a3,0x10
    12b2:	078a                	sll	a5,a5,0x2
    12b4:	82c1                	srl	a3,a3,0x10
    12b6:	97f6                	add	a5,a5,t4
    12b8:	06d8eb63          	bltu	a7,a3,132e <core_init_state+0xba>
    12bc:	4b9c                	lw	a5,16(a5)
    12be:	42a1                	li	t0,8
    12c0:	00170693          	add	a3,a4,1
    12c4:	00568433          	add	s0,a3,t0
    12c8:	05047663          	bgeu	s0,a6,1314 <core_init_state+0xa0>
    12cc:	9732                	add	a4,a4,a2
    12ce:	86ba                	mv	a3,a4
    12d0:	005783b3          	add	t2,a5,t0
    12d4:	0007cf83          	lbu	t6,0(a5)
    12d8:	0785                	add	a5,a5,1
    12da:	0685                	add	a3,a3,1
    12dc:	fff68fa3          	sb	t6,-1(a3)
    12e0:	fef39ae3          	bne	t2,a5,12d4 <core_init_state+0x60>
    12e4:	0585                	add	a1,a1,1
    12e6:	05c2                	sll	a1,a1,0x10
    12e8:	9716                	add	a4,a4,t0
    12ea:	81c1                	srl	a1,a1,0x10
    12ec:	01e70023          	sb	t5,0(a4)
    12f0:	0035d793          	srl	a5,a1,0x3
    12f4:	0075f693          	and	a3,a1,7
    12f8:	8722                	mv	a4,s0
    12fa:	8b8d                	and	a5,a5,3
    12fc:	fbc697e3          	bne	a3,t3,12aa <core_init_state+0x36>
    1300:	078a                	sll	a5,a5,0x2
    1302:	42a1                	li	t0,8
    1304:	00170693          	add	a3,a4,1
    1308:	97f6                	add	a5,a5,t4
    130a:	00568433          	add	s0,a3,t0
    130e:	5b9c                	lw	a5,48(a5)
    1310:	fb046ee3          	bltu	s0,a6,12cc <core_init_state+0x58>
    1314:	00a76463          	bltu	a4,a0,131c <core_init_state+0xa8>
    1318:	a801                	j	1328 <core_init_state+0xb4>
    131a:	0685                	add	a3,a3,1
    131c:	9732                	add	a4,a4,a2
    131e:	00070023          	sb	zero,0(a4)
    1322:	8736                	mv	a4,a3
    1324:	fea6ebe3          	bltu	a3,a0,131a <core_init_state+0xa6>
    1328:	4432                	lw	s0,12(sp)
    132a:	0141                	add	sp,sp,16
    132c:	8082                	ret
    132e:	439c                	lw	a5,0(a5)
    1330:	4291                	li	t0,4
    1332:	b779                	j	12c0 <core_init_state+0x4c>
    1334:	078a                	sll	a5,a5,0x2
    1336:	97f6                	add	a5,a5,t4
    1338:	539c                	lw	a5,32(a5)
    133a:	42a1                	li	t0,8
    133c:	b751                	j	12c0 <core_init_state+0x4c>
    133e:	4701                	li	a4,0
    1340:	4685                	li	a3,1
    1342:	a011                	j	1346 <core_init_state+0xd2>
    1344:	0685                	add	a3,a3,1
    1346:	9732                	add	a4,a4,a2
    1348:	00070023          	sb	zero,0(a4)
    134c:	8736                	mv	a4,a3
    134e:	fea6ebe3          	bltu	a3,a0,1344 <core_init_state+0xd0>
    1352:	8082                	ret

00001354 <core_state_transition>:
    1354:	4118                	lw	a4,0(a0)
    1356:	862a                	mv	a2,a0
    1358:	00074683          	lbu	a3,0(a4)
    135c:	1c068563          	beqz	a3,1526 <core_state_transition+0x1d2>
    1360:	02c00793          	li	a5,44
    1364:	4501                	li	a0,0
    1366:	16f68063          	beq	a3,a5,14c6 <core_state_transition+0x172>
    136a:	fd068513          	add	a0,a3,-48
    136e:	0ff57513          	zext.b	a0,a0
    1372:	4825                	li	a6,9
    1374:	02a87863          	bgeu	a6,a0,13a4 <core_state_transition+0x50>
    1378:	02d00513          	li	a0,45
    137c:	14a68e63          	beq	a3,a0,14d8 <core_state_transition+0x184>
    1380:	02e00513          	li	a0,46
    1384:	06a68663          	beq	a3,a0,13f0 <core_state_transition+0x9c>
    1388:	02b00513          	li	a0,43
    138c:	14a68663          	beq	a3,a0,14d8 <core_state_transition+0x184>
    1390:	41d4                	lw	a3,4(a1)
    1392:	419c                	lw	a5,0(a1)
    1394:	0705                	add	a4,a4,1
    1396:	0685                	add	a3,a3,1
    1398:	0785                	add	a5,a5,1
    139a:	c1d4                	sw	a3,4(a1)
    139c:	c19c                	sw	a5,0(a1)
    139e:	4505                	li	a0,1
    13a0:	c218                	sw	a4,0(a2)
    13a2:	8082                	ret
    13a4:	4188                	lw	a0,0(a1)
    13a6:	00170693          	add	a3,a4,1
    13aa:	0505                	add	a0,a0,1
    13ac:	c188                	sw	a0,0(a1)
    13ae:	00174703          	lbu	a4,1(a4)
    13b2:	16070463          	beqz	a4,151a <core_state_transition+0x1c6>
    13b6:	10f70663          	beq	a4,a5,14c2 <core_state_transition+0x16e>
    13ba:	02e00793          	li	a5,46
    13be:	0ef70e63          	beq	a4,a5,14ba <core_state_transition+0x166>
    13c2:	fd070713          	add	a4,a4,-48
    13c6:	0ff77713          	zext.b	a4,a4
    13ca:	47a5                	li	a5,9
    13cc:	00e7ea63          	bltu	a5,a4,13e0 <core_state_transition+0x8c>
    13d0:	0016c703          	lbu	a4,1(a3)
    13d4:	0685                	add	a3,a3,1
    13d6:	14070263          	beqz	a4,151a <core_state_transition+0x1c6>
    13da:	02c00793          	li	a5,44
    13de:	bfe1                	j	13b6 <core_state_transition+0x62>
    13e0:	499c                	lw	a5,16(a1)
    13e2:	00168713          	add	a4,a3,1
    13e6:	4505                	li	a0,1
    13e8:	0785                	add	a5,a5,1
    13ea:	c99c                	sw	a5,16(a1)
    13ec:	c218                	sw	a4,0(a2)
    13ee:	8082                	ret
    13f0:	4188                	lw	a0,0(a1)
    13f2:	00170693          	add	a3,a4,1
    13f6:	0505                	add	a0,a0,1
    13f8:	c188                	sw	a0,0(a1)
    13fa:	00174703          	lbu	a4,1(a4)
    13fe:	12070163          	beqz	a4,1520 <core_state_transition+0x1cc>
    1402:	14f70363          	beq	a4,a5,1548 <core_state_transition+0x1f4>
    1406:	0df77793          	and	a5,a4,223
    140a:	04500513          	li	a0,69
    140e:	02a78063          	beq	a5,a0,142e <core_state_transition+0xda>
    1412:	fd070713          	add	a4,a4,-48
    1416:	0ff77713          	zext.b	a4,a4
    141a:	47a5                	li	a5,9
    141c:	0ae7e763          	bltu	a5,a4,14ca <core_state_transition+0x176>
    1420:	0016c703          	lbu	a4,1(a3)
    1424:	0685                	add	a3,a3,1
    1426:	cf6d                	beqz	a4,1520 <core_state_transition+0x1cc>
    1428:	02c00793          	li	a5,44
    142c:	bfd9                	j	1402 <core_state_transition+0xae>
    142e:	49dc                	lw	a5,20(a1)
    1430:	00168713          	add	a4,a3,1
    1434:	0785                	add	a5,a5,1
    1436:	c9dc                	sw	a5,20(a1)
    1438:	0016c783          	lbu	a5,1(a3)
    143c:	cbed                	beqz	a5,152e <core_state_transition+0x1da>
    143e:	02c00513          	li	a0,44
    1442:	0ea78863          	beq	a5,a0,1532 <core_state_transition+0x1de>
    1446:	45d8                	lw	a4,12(a1)
    1448:	fd578793          	add	a5,a5,-43
    144c:	0fd7f793          	and	a5,a5,253
    1450:	0705                	add	a4,a4,1
    1452:	c5d8                	sw	a4,12(a1)
    1454:	c791                	beqz	a5,1460 <core_state_transition+0x10c>
    1456:	00268713          	add	a4,a3,2
    145a:	4505                	li	a0,1
    145c:	c218                	sw	a4,0(a2)
    145e:	8082                	ret
    1460:	0026c783          	lbu	a5,2(a3)
    1464:	00268713          	add	a4,a3,2
    1468:	c3e9                	beqz	a5,152a <core_state_transition+0x1d6>
    146a:	0ca78763          	beq	a5,a0,1538 <core_state_transition+0x1e4>
    146e:	4d88                	lw	a0,24(a1)
    1470:	fd078793          	add	a5,a5,-48
    1474:	0ff7f793          	zext.b	a5,a5
    1478:	0505                	add	a0,a0,1
    147a:	4825                	li	a6,9
    147c:	cd88                	sw	a0,24(a1)
    147e:	00f87763          	bgeu	a6,a5,148c <core_state_transition+0x138>
    1482:	00368713          	add	a4,a3,3
    1486:	4505                	li	a0,1
    1488:	c218                	sw	a4,0(a2)
    148a:	8082                	ret
    148c:	4525                	li	a0,9
    148e:	00174683          	lbu	a3,1(a4)
    1492:	883a                	mv	a6,a4
    1494:	02c00893          	li	a7,44
    1498:	fd068793          	add	a5,a3,-48
    149c:	0705                	add	a4,a4,1
    149e:	0ff7f793          	zext.b	a5,a5
    14a2:	c2cd                	beqz	a3,1544 <core_state_transition+0x1f0>
    14a4:	09168d63          	beq	a3,a7,153e <core_state_transition+0x1ea>
    14a8:	fef573e3          	bgeu	a0,a5,148e <core_state_transition+0x13a>
    14ac:	41dc                	lw	a5,4(a1)
    14ae:	00280713          	add	a4,a6,2
    14b2:	4505                	li	a0,1
    14b4:	0785                	add	a5,a5,1
    14b6:	c1dc                	sw	a5,4(a1)
    14b8:	bf15                	j	13ec <core_state_transition+0x98>
    14ba:	499c                	lw	a5,16(a1)
    14bc:	0785                	add	a5,a5,1
    14be:	c99c                	sw	a5,16(a1)
    14c0:	b785                	j	1420 <core_state_transition+0xcc>
    14c2:	8736                	mv	a4,a3
    14c4:	4511                	li	a0,4
    14c6:	0705                	add	a4,a4,1
    14c8:	b715                	j	13ec <core_state_transition+0x98>
    14ca:	49dc                	lw	a5,20(a1)
    14cc:	00168713          	add	a4,a3,1
    14d0:	4505                	li	a0,1
    14d2:	0785                	add	a5,a5,1
    14d4:	c9dc                	sw	a5,20(a1)
    14d6:	bf19                	j	13ec <core_state_transition+0x98>
    14d8:	4188                	lw	a0,0(a1)
    14da:	00170693          	add	a3,a4,1
    14de:	0505                	add	a0,a0,1
    14e0:	c188                	sw	a0,0(a1)
    14e2:	00174803          	lbu	a6,1(a4)
    14e6:	06080963          	beqz	a6,1558 <core_state_transition+0x204>
    14ea:	06f80363          	beq	a6,a5,1550 <core_state_transition+0x1fc>
    14ee:	4598                	lw	a4,8(a1)
    14f0:	fd080793          	add	a5,a6,-48
    14f4:	0ff7f793          	zext.b	a5,a5
    14f8:	4525                	li	a0,9
    14fa:	0705                	add	a4,a4,1
    14fc:	00f57b63          	bgeu	a0,a5,1512 <core_state_transition+0x1be>
    1500:	02e00793          	li	a5,46
    1504:	00f80963          	beq	a6,a5,1516 <core_state_transition+0x1c2>
    1508:	c598                	sw	a4,8(a1)
    150a:	4505                	li	a0,1
    150c:	00168713          	add	a4,a3,1
    1510:	bdf1                	j	13ec <core_state_transition+0x98>
    1512:	c598                	sw	a4,8(a1)
    1514:	bd75                	j	13d0 <core_state_transition+0x7c>
    1516:	c598                	sw	a4,8(a1)
    1518:	b721                	j	1420 <core_state_transition+0xcc>
    151a:	8736                	mv	a4,a3
    151c:	4511                	li	a0,4
    151e:	b5f9                	j	13ec <core_state_transition+0x98>
    1520:	8736                	mv	a4,a3
    1522:	4515                	li	a0,5
    1524:	b5e1                	j	13ec <core_state_transition+0x98>
    1526:	4501                	li	a0,0
    1528:	b5d1                	j	13ec <core_state_transition+0x98>
    152a:	4519                	li	a0,6
    152c:	b5c1                	j	13ec <core_state_transition+0x98>
    152e:	450d                	li	a0,3
    1530:	bd75                	j	13ec <core_state_transition+0x98>
    1532:	450d                	li	a0,3
    1534:	0705                	add	a4,a4,1
    1536:	bd5d                	j	13ec <core_state_transition+0x98>
    1538:	4519                	li	a0,6
    153a:	0705                	add	a4,a4,1
    153c:	bd45                	j	13ec <core_state_transition+0x98>
    153e:	451d                	li	a0,7
    1540:	0705                	add	a4,a4,1
    1542:	b56d                	j	13ec <core_state_transition+0x98>
    1544:	451d                	li	a0,7
    1546:	b55d                	j	13ec <core_state_transition+0x98>
    1548:	8736                	mv	a4,a3
    154a:	4515                	li	a0,5
    154c:	0705                	add	a4,a4,1
    154e:	bd79                	j	13ec <core_state_transition+0x98>
    1550:	8736                	mv	a4,a3
    1552:	4509                	li	a0,2
    1554:	0705                	add	a4,a4,1
    1556:	bd59                	j	13ec <core_state_transition+0x98>
    1558:	8736                	mv	a4,a3
    155a:	4509                	li	a0,2
    155c:	bd41                	j	13ec <core_state_transition+0x98>

0000155e <core_bench_state>:
    155e:	7119                	add	sp,sp,-128
    1560:	daa6                	sw	s1,116(sp)
    1562:	d6ce                	sw	s3,108(sp)
    1564:	0804                	add	s1,sp,16
    1566:	03010993          	add	s3,sp,48
    156a:	dca2                	sw	s0,120(sp)
    156c:	d8ca                	sw	s2,112(sp)
    156e:	d4d2                	sw	s4,104(sp)
    1570:	d0da                	sw	s6,96(sp)
    1572:	cede                	sw	s7,92(sp)
    1574:	cce2                	sw	s8,88(sp)
    1576:	8b36                	mv	s6,a3
    1578:	8a3a                	mv	s4,a4
    157a:	893e                	mv	s2,a5
    157c:	de86                	sw	ra,124(sp)
    157e:	d2d6                	sw	s5,100(sp)
    1580:	842e                	mv	s0,a1
    1582:	8c2a                	mv	s8,a0
    1584:	8bb2                	mv	s7,a2
    1586:	c62e                	sw	a1,12(sp)
    1588:	0894                	add	a3,sp,80
    158a:	8726                	mv	a4,s1
    158c:	87ce                	mv	a5,s3
    158e:	0007a023          	sw	zero,0(a5)
    1592:	00072023          	sw	zero,0(a4)
    1596:	0791                	add	a5,a5,4
    1598:	0711                	add	a4,a4,4
    159a:	fed79ae3          	bne	a5,a3,158e <core_bench_state+0x30>
    159e:	00044783          	lbu	a5,0(s0)
    15a2:	00c10a93          	add	s5,sp,12
    15a6:	c7f1                	beqz	a5,1672 <core_bench_state+0x114>
    15a8:	180c                	add	a1,sp,48
    15aa:	8556                	mv	a0,s5
    15ac:	3365                	jal	1354 <core_state_transition>
    15ae:	00251813          	sll	a6,a0,0x2
    15b2:	05080793          	add	a5,a6,80
    15b6:	00278833          	add	a6,a5,sp
    15ba:	4732                	lw	a4,12(sp)
    15bc:	fc082783          	lw	a5,-64(a6)
    15c0:	00074703          	lbu	a4,0(a4)
    15c4:	0785                	add	a5,a5,1
    15c6:	fcf82023          	sw	a5,-64(a6)
    15ca:	ff79                	bnez	a4,15a8 <core_bench_state+0x4a>
    15cc:	c622                	sw	s0,12(sp)
    15ce:	9c22                	add	s8,s8,s0
    15d0:	03847563          	bgeu	s0,s8,15fa <core_bench_state+0x9c>
    15d4:	87a2                	mv	a5,s0
    15d6:	02c00613          	li	a2,44
    15da:	0007c703          	lbu	a4,0(a5)
    15de:	017746b3          	xor	a3,a4,s7
    15e2:	00c70463          	beq	a4,a2,15ea <core_bench_state+0x8c>
    15e6:	00d78023          	sb	a3,0(a5)
    15ea:	97d2                	add	a5,a5,s4
    15ec:	ff87e7e3          	bltu	a5,s8,15da <core_bench_state+0x7c>
    15f0:	00044783          	lbu	a5,0(s0)
    15f4:	00c10a93          	add	s5,sp,12
    15f8:	c39d                	beqz	a5,161e <core_bench_state+0xc0>
    15fa:	180c                	add	a1,sp,48
    15fc:	8556                	mv	a0,s5
    15fe:	3b99                	jal	1354 <core_state_transition>
    1600:	00251613          	sll	a2,a0,0x2
    1604:	05060793          	add	a5,a2,80
    1608:	00278633          	add	a2,a5,sp
    160c:	4732                	lw	a4,12(sp)
    160e:	fc062783          	lw	a5,-64(a2)
    1612:	00074703          	lbu	a4,0(a4)
    1616:	0785                	add	a5,a5,1
    1618:	fcf62023          	sw	a5,-64(a2)
    161c:	ff79                	bnez	a4,15fa <core_bench_state+0x9c>
    161e:	c622                	sw	s0,12(sp)
    1620:	02c00693          	li	a3,44
    1624:	01847d63          	bgeu	s0,s8,163e <core_bench_state+0xe0>
    1628:	00044783          	lbu	a5,0(s0)
    162c:	0167c733          	xor	a4,a5,s6
    1630:	00d78463          	beq	a5,a3,1638 <core_bench_state+0xda>
    1634:	00e40023          	sb	a4,0(s0)
    1638:	9452                	add	s0,s0,s4
    163a:	ff8467e3          	bltu	s0,s8,1628 <core_bench_state+0xca>
    163e:	02048413          	add	s0,s1,32
    1642:	4088                	lw	a0,0(s1)
    1644:	85ca                	mv	a1,s2
    1646:	0491                	add	s1,s1,4
    1648:	28fd                	jal	1746 <crcu32>
    164a:	85aa                	mv	a1,a0
    164c:	0009a503          	lw	a0,0(s3)
    1650:	0991                	add	s3,s3,4
    1652:	28d5                	jal	1746 <crcu32>
    1654:	892a                	mv	s2,a0
    1656:	fe9416e3          	bne	s0,s1,1642 <core_bench_state+0xe4>
    165a:	50f6                	lw	ra,124(sp)
    165c:	5466                	lw	s0,120(sp)
    165e:	54d6                	lw	s1,116(sp)
    1660:	5946                	lw	s2,112(sp)
    1662:	59b6                	lw	s3,108(sp)
    1664:	5a26                	lw	s4,104(sp)
    1666:	5a96                	lw	s5,100(sp)
    1668:	5b06                	lw	s6,96(sp)
    166a:	4bf6                	lw	s7,92(sp)
    166c:	4c66                	lw	s8,88(sp)
    166e:	6109                	add	sp,sp,128
    1670:	8082                	ret
    1672:	9c22                	add	s8,s8,s0
    1674:	f78460e3          	bltu	s0,s8,15d4 <core_bench_state+0x76>
    1678:	b7d9                	j	163e <core_bench_state+0xe0>

0000167a <get_seed_32>:
    167a:	4795                	li	a5,5
    167c:	04a7e463          	bltu	a5,a0,16c4 <get_seed_32+0x4a>
    1680:	00001717          	auipc	a4,0x1
    1684:	88070713          	add	a4,a4,-1920 # 1f00 <errpat+0x10>
    1688:	050a                	sll	a0,a0,0x2
    168a:	953a                	add	a0,a0,a4
    168c:	411c                	lw	a5,0(a0)
    168e:	97ba                	add	a5,a5,a4
    1690:	8782                	jr	a5
    1692:	00001517          	auipc	a0,0x1
    1696:	e3652503          	lw	a0,-458(a0) # 24c8 <seed5_volatile>
    169a:	8082                	ret
    169c:	00001517          	auipc	a0,0x1
    16a0:	e3452503          	lw	a0,-460(a0) # 24d0 <seed1_volatile>
    16a4:	8082                	ret
    16a6:	00001517          	auipc	a0,0x1
    16aa:	e2652503          	lw	a0,-474(a0) # 24cc <seed2_volatile>
    16ae:	8082                	ret
    16b0:	00001517          	auipc	a0,0x1
    16b4:	de852503          	lw	a0,-536(a0) # 2498 <seed3_volatile>
    16b8:	8082                	ret
    16ba:	00001517          	auipc	a0,0x1
    16be:	dda52503          	lw	a0,-550(a0) # 2494 <seed4_volatile>
    16c2:	8082                	ret
    16c4:	4501                	li	a0,0
    16c6:	8082                	ret

000016c8 <crcu8>:
    16c8:	86aa                	mv	a3,a0
    16ca:	852e                	mv	a0,a1
    16cc:	75e9                	lui	a1,0xffffa
    16ce:	47a1                	li	a5,8
    16d0:	0585                	add	a1,a1,1 # ffffa001 <_stack_start+0xffefa001>
    16d2:	00a6c733          	xor	a4,a3,a0
    16d6:	17fd                	add	a5,a5,-1
    16d8:	8105                	srl	a0,a0,0x1
    16da:	8b05                	and	a4,a4,1
    16dc:	0ff7f793          	zext.b	a5,a5
    16e0:	00b54633          	xor	a2,a0,a1
    16e4:	8285                	srl	a3,a3,0x1
    16e6:	c701                	beqz	a4,16ee <crcu8+0x26>
    16e8:	01061513          	sll	a0,a2,0x10
    16ec:	8141                	srl	a0,a0,0x10
    16ee:	f3f5                	bnez	a5,16d2 <crcu8+0xa>
    16f0:	8082                	ret

000016f2 <crcu16>:
    16f2:	86aa                	mv	a3,a0
    16f4:	7869                	lui	a6,0xffffa
    16f6:	852e                	mv	a0,a1
    16f8:	0ff6f613          	zext.b	a2,a3
    16fc:	47a1                	li	a5,8
    16fe:	0805                	add	a6,a6,1 # ffffa001 <_stack_start+0xffefa001>
    1700:	00a64733          	xor	a4,a2,a0
    1704:	17fd                	add	a5,a5,-1
    1706:	8105                	srl	a0,a0,0x1
    1708:	8b05                	and	a4,a4,1
    170a:	0ff7f793          	zext.b	a5,a5
    170e:	010545b3          	xor	a1,a0,a6
    1712:	8205                	srl	a2,a2,0x1
    1714:	c701                	beqz	a4,171c <crcu16+0x2a>
    1716:	01059513          	sll	a0,a1,0x10
    171a:	8141                	srl	a0,a0,0x10
    171c:	f3f5                	bnez	a5,1700 <crcu16+0xe>
    171e:	75e9                	lui	a1,0xffffa
    1720:	82a1                	srl	a3,a3,0x8
    1722:	47a1                	li	a5,8
    1724:	0585                	add	a1,a1,1 # ffffa001 <_stack_start+0xffefa001>
    1726:	00a6c733          	xor	a4,a3,a0
    172a:	17fd                	add	a5,a5,-1
    172c:	8105                	srl	a0,a0,0x1
    172e:	8b05                	and	a4,a4,1
    1730:	0ff7f793          	zext.b	a5,a5
    1734:	00b54633          	xor	a2,a0,a1
    1738:	8285                	srl	a3,a3,0x1
    173a:	c701                	beqz	a4,1742 <crcu16+0x50>
    173c:	01061513          	sll	a0,a2,0x10
    1740:	8141                	srl	a0,a0,0x10
    1742:	f3f5                	bnez	a5,1726 <crcu16+0x34>
    1744:	8082                	ret

00001746 <crcu32>:
    1746:	872a                	mv	a4,a0
    1748:	01071613          	sll	a2,a4,0x10
    174c:	78e9                	lui	a7,0xffffa
    174e:	852e                	mv	a0,a1
    1750:	8241                	srl	a2,a2,0x10
    1752:	0ff77593          	zext.b	a1,a4
    1756:	47a1                	li	a5,8
    1758:	0885                	add	a7,a7,1 # ffffa001 <_stack_start+0xffefa001>
    175a:	00a5c6b3          	xor	a3,a1,a0
    175e:	17fd                	add	a5,a5,-1
    1760:	8105                	srl	a0,a0,0x1
    1762:	8a85                	and	a3,a3,1
    1764:	0ff7f793          	zext.b	a5,a5
    1768:	01154833          	xor	a6,a0,a7
    176c:	8185                	srl	a1,a1,0x1
    176e:	c681                	beqz	a3,1776 <crcu32+0x30>
    1770:	01081513          	sll	a0,a6,0x10
    1774:	8141                	srl	a0,a0,0x10
    1776:	f3f5                	bnez	a5,175a <crcu32+0x14>
    1778:	7869                	lui	a6,0xffffa
    177a:	8221                	srl	a2,a2,0x8
    177c:	47a1                	li	a5,8
    177e:	0805                	add	a6,a6,1 # ffffa001 <_stack_start+0xffefa001>
    1780:	00a646b3          	xor	a3,a2,a0
    1784:	17fd                	add	a5,a5,-1
    1786:	8105                	srl	a0,a0,0x1
    1788:	8a85                	and	a3,a3,1
    178a:	0ff7f793          	zext.b	a5,a5
    178e:	010545b3          	xor	a1,a0,a6
    1792:	8205                	srl	a2,a2,0x1
    1794:	c681                	beqz	a3,179c <crcu32+0x56>
    1796:	01059513          	sll	a0,a1,0x10
    179a:	8141                	srl	a0,a0,0x10
    179c:	f3f5                	bnez	a5,1780 <crcu32+0x3a>
    179e:	01075613          	srl	a2,a4,0x10
    17a2:	7869                	lui	a6,0xffffa
    17a4:	8732                	mv	a4,a2
    17a6:	47a1                	li	a5,8
    17a8:	0ff67613          	zext.b	a2,a2
    17ac:	0805                	add	a6,a6,1 # ffffa001 <_stack_start+0xffefa001>
    17ae:	00a646b3          	xor	a3,a2,a0
    17b2:	17fd                	add	a5,a5,-1
    17b4:	8105                	srl	a0,a0,0x1
    17b6:	8a85                	and	a3,a3,1
    17b8:	0ff7f793          	zext.b	a5,a5
    17bc:	010545b3          	xor	a1,a0,a6
    17c0:	8205                	srl	a2,a2,0x1
    17c2:	c681                	beqz	a3,17ca <crcu32+0x84>
    17c4:	01059513          	sll	a0,a1,0x10
    17c8:	8141                	srl	a0,a0,0x10
    17ca:	f3f5                	bnez	a5,17ae <crcu32+0x68>
    17cc:	75e9                	lui	a1,0xffffa
    17ce:	8321                	srl	a4,a4,0x8
    17d0:	47a1                	li	a5,8
    17d2:	0585                	add	a1,a1,1 # ffffa001 <_stack_start+0xffefa001>
    17d4:	00a746b3          	xor	a3,a4,a0
    17d8:	17fd                	add	a5,a5,-1
    17da:	8105                	srl	a0,a0,0x1
    17dc:	8a85                	and	a3,a3,1
    17de:	0ff7f793          	zext.b	a5,a5
    17e2:	00b54633          	xor	a2,a0,a1
    17e6:	8305                	srl	a4,a4,0x1
    17e8:	c681                	beqz	a3,17f0 <crcu32+0xaa>
    17ea:	01061513          	sll	a0,a2,0x10
    17ee:	8141                	srl	a0,a0,0x10
    17f0:	f3f5                	bnez	a5,17d4 <crcu32+0x8e>
    17f2:	8082                	ret

000017f4 <crc16>:
    17f4:	86aa                	mv	a3,a0
    17f6:	01069613          	sll	a2,a3,0x10
    17fa:	7869                	lui	a6,0xffffa
    17fc:	852e                	mv	a0,a1
    17fe:	8241                	srl	a2,a2,0x10
    1800:	0ff6f693          	zext.b	a3,a3
    1804:	47a1                	li	a5,8
    1806:	0805                	add	a6,a6,1 # ffffa001 <_stack_start+0xffefa001>
    1808:	00a6c733          	xor	a4,a3,a0
    180c:	17fd                	add	a5,a5,-1
    180e:	8105                	srl	a0,a0,0x1
    1810:	8b05                	and	a4,a4,1
    1812:	0ff7f793          	zext.b	a5,a5
    1816:	010545b3          	xor	a1,a0,a6
    181a:	8285                	srl	a3,a3,0x1
    181c:	c701                	beqz	a4,1824 <crc16+0x30>
    181e:	01059513          	sll	a0,a1,0x10
    1822:	8141                	srl	a0,a0,0x10
    1824:	f3f5                	bnez	a5,1808 <crc16+0x14>
    1826:	75e9                	lui	a1,0xffffa
    1828:	00865693          	srl	a3,a2,0x8
    182c:	47a1                	li	a5,8
    182e:	0585                	add	a1,a1,1 # ffffa001 <_stack_start+0xffefa001>
    1830:	00a6c733          	xor	a4,a3,a0
    1834:	17fd                	add	a5,a5,-1
    1836:	8105                	srl	a0,a0,0x1
    1838:	8b05                	and	a4,a4,1
    183a:	0ff7f793          	zext.b	a5,a5
    183e:	00b54633          	xor	a2,a0,a1
    1842:	8285                	srl	a3,a3,0x1
    1844:	c701                	beqz	a4,184c <crc16+0x58>
    1846:	01061513          	sll	a0,a2,0x10
    184a:	8141                	srl	a0,a0,0x10
    184c:	f3f5                	bnez	a5,1830 <crc16+0x3c>
    184e:	8082                	ret

00001850 <check_data_types>:
    1850:	4501                	li	a0,0
    1852:	8082                	ret

00001854 <start_time>:
    1854:	1141                	add	sp,sp,-16
    1856:	c606                	sw	ra,12(sp)
    1858:	8abfe0ef          	jal	102 <get_cycle_value>
    185c:	40b2                	lw	ra,12(sp)
    185e:	00001797          	auipc	a5,0x1
    1862:	c6278793          	add	a5,a5,-926 # 24c0 <t0>
    1866:	c388                	sw	a0,0(a5)
    1868:	c3cc                	sw	a1,4(a5)
    186a:	0141                	add	sp,sp,16
    186c:	8082                	ret

0000186e <stop_time>:
    186e:	1141                	add	sp,sp,-16
    1870:	c606                	sw	ra,12(sp)
    1872:	891fe0ef          	jal	102 <get_cycle_value>
    1876:	40b2                	lw	ra,12(sp)
    1878:	00001797          	auipc	a5,0x1
    187c:	c4078793          	add	a5,a5,-960 # 24b8 <t1>
    1880:	c388                	sw	a0,0(a5)
    1882:	c3cc                	sw	a1,4(a5)
    1884:	0141                	add	sp,sp,16
    1886:	8082                	ret

00001888 <get_time>:
    1888:	00001697          	auipc	a3,0x1
    188c:	c3068693          	add	a3,a3,-976 # 24b8 <t1>
    1890:	00001717          	auipc	a4,0x1
    1894:	c3070713          	add	a4,a4,-976 # 24c0 <t0>
    1898:	429c                	lw	a5,0(a3)
    189a:	4308                	lw	a0,0(a4)
    189c:	42cc                	lw	a1,4(a3)
    189e:	4358                	lw	a4,4(a4)
    18a0:	40a78533          	sub	a0,a5,a0
    18a4:	00a7b7b3          	sltu	a5,a5,a0
    18a8:	8d99                	sub	a1,a1,a4
    18aa:	8d9d                	sub	a1,a1,a5
    18ac:	8082                	ret

000018ae <time_in_secs>:
    18ae:	05e2                	sll	a1,a1,0x18
    18b0:	8121                	srl	a0,a0,0x8
    18b2:	6795                	lui	a5,0x5
    18b4:	8d4d                	or	a0,a0,a1
    18b6:	c4b78793          	add	a5,a5,-949 # 4c4b <_bss_end+0x1fa7>
    18ba:	02f55533          	divu	a0,a0,a5
    18be:	8082                	ret

000018c0 <portable_init>:
    18c0:	8082                	ret

000018c2 <portable_fini>:
    18c2:	8082                	ret

000018c4 <main>:
    18c4:	7135                	add	sp,sp,-160
    18c6:	862e                	mv	a2,a1
    18c8:	c62a                	sw	a0,12(sp)
    18ca:	006c                	add	a1,sp,12
    18cc:	08e8                	add	a0,sp,92
    18ce:	cf06                	sw	ra,156(sp)
    18d0:	cd22                	sw	s0,152(sp)
    18d2:	cb26                	sw	s1,148(sp)
    18d4:	c94a                	sw	s2,144(sp)
    18d6:	c74e                	sw	s3,140(sp)
    18d8:	c552                	sw	s4,136(sp)
    18da:	c356                	sw	s5,132(sp)
    18dc:	c15a                	sw	s6,128(sp)
    18de:	dede                	sw	s7,124(sp)
    18e0:	dce2                	sw	s8,120(sp)
    18e2:	dae6                	sw	s9,116(sp)
    18e4:	d8ea                	sw	s10,112(sp)
    18e6:	d6ee                	sw	s11,108(sp)
    18e8:	3fe1                	jal	18c0 <portable_init>
    18ea:	4505                	li	a0,1
    18ec:	3379                	jal	167a <get_seed_32>
    18ee:	87aa                	mv	a5,a0
    18f0:	4509                	li	a0,2
    18f2:	00f11c23          	sh	a5,24(sp)
    18f6:	3351                	jal	167a <get_seed_32>
    18f8:	87aa                	mv	a5,a0
    18fa:	450d                	li	a0,3
    18fc:	00f11d23          	sh	a5,26(sp)
    1900:	3bad                	jal	167a <get_seed_32>
    1902:	87aa                	mv	a5,a0
    1904:	4511                	li	a0,4
    1906:	00f11e23          	sh	a5,28(sp)
    190a:	3b85                	jal	167a <get_seed_32>
    190c:	87aa                	mv	a5,a0
    190e:	4515                	li	a0,5
    1910:	da3e                	sw	a5,52(sp)
    1912:	33a5                	jal	167a <get_seed_32>
    1914:	e111                	bnez	a0,1918 <main+0x54>
    1916:	451d                	li	a0,7
    1918:	47e2                	lw	a5,24(sp)
    191a:	dc2a                	sw	a0,56(sp)
    191c:	46079463          	bnez	a5,1d84 <main+0x4c0>
    1920:	01c11783          	lh	a5,28(sp)
    1924:	46078c63          	beqz	a5,1d9c <main+0x4d8>
    1928:	00001317          	auipc	t1,0x1
    192c:	bac30313          	add	t1,t1,-1108 # 24d4 <static_memblk>
    1930:	00257793          	and	a5,a0,2
    1934:	00157713          	and	a4,a0,1
    1938:	00f037b3          	snez	a5,a5
    193c:	d01a                	sw	t1,32(sp)
    193e:	04011c23          	sh	zero,88(sp)
    1942:	00457693          	and	a3,a0,4
    1946:	973e                	add	a4,a4,a5
    1948:	c681                	beqz	a3,1950 <main+0x8c>
    194a:	0705                	add	a4,a4,1
    194c:	0742                	sll	a4,a4,0x10
    194e:	8341                	srl	a4,a4,0x10
    1950:	7d000593          	li	a1,2000
    1954:	02e5d5b3          	divu	a1,a1,a4
    1958:	0834                	add	a3,sp,24
    195a:	4781                	li	a5,0
    195c:	4601                	li	a2,0
    195e:	4885                	li	a7,1
    1960:	480d                	li	a6,3
    1962:	d82e                	sw	a1,48(sp)
    1964:	00f89733          	sll	a4,a7,a5
    1968:	8f69                	and	a4,a4,a0
    196a:	0785                	add	a5,a5,1
    196c:	40071463          	bnez	a4,1d74 <main+0x4b0>
    1970:	0691                	add	a3,a3,4
    1972:	ff0799e3          	bne	a5,a6,1964 <main+0xa0>
    1976:	57e2                	lw	a5,56(sp)
    1978:	0017f713          	and	a4,a5,1
    197c:	cb09                	beqz	a4,198e <main+0xca>
    197e:	01811603          	lh	a2,24(sp)
    1982:	5592                	lw	a1,36(sp)
    1984:	5542                	lw	a0,48(sp)
    1986:	a14ff0ef          	jal	b9a <core_list_init>
    198a:	57e2                	lw	a5,56(sp)
    198c:	de2a                	sw	a0,60(sp)
    198e:	0027f713          	and	a4,a5,2
    1992:	1a071563          	bnez	a4,1b3c <main+0x278>
    1996:	8b91                	and	a5,a5,4
    1998:	c799                	beqz	a5,19a6 <main+0xe2>
    199a:	5632                	lw	a2,44(sp)
    199c:	01811583          	lh	a1,24(sp)
    19a0:	5542                	lw	a0,48(sp)
    19a2:	8d3ff0ef          	jal	1274 <core_init_state>
    19a6:	57d2                	lw	a5,52(sp)
    19a8:	eb8d                	bnez	a5,19da <main+0x116>
    19aa:	4785                	li	a5,1
    19ac:	da3e                	sw	a5,52(sp)
    19ae:	5752                	lw	a4,52(sp)
    19b0:	00271793          	sll	a5,a4,0x2
    19b4:	97ba                	add	a5,a5,a4
    19b6:	0786                	sll	a5,a5,0x1
    19b8:	da3e                	sw	a5,52(sp)
    19ba:	3d69                	jal	1854 <start_time>
    19bc:	0828                	add	a0,sp,24
    19be:	cc7fe0ef          	jal	684 <iterate>
    19c2:	3575                	jal	186e <stop_time>
    19c4:	35d1                	jal	1888 <get_time>
    19c6:	35e5                	jal	18ae <time_in_secs>
    19c8:	d17d                	beqz	a0,19ae <main+0xea>
    19ca:	47a9                	li	a5,10
    19cc:	02a7d7b3          	divu	a5,a5,a0
    19d0:	5752                	lw	a4,52(sp)
    19d2:	0785                	add	a5,a5,1
    19d4:	02f707b3          	mul	a5,a4,a5
    19d8:	da3e                	sw	a5,52(sp)
    19da:	3dad                	jal	1854 <start_time>
    19dc:	0828                	add	a0,sp,24
    19de:	ca7fe0ef          	jal	684 <iterate>
    19e2:	3571                	jal	186e <stop_time>
    19e4:	3555                	jal	1888 <get_time>
    19e6:	89aa                	mv	s3,a0
    19e8:	01811503          	lh	a0,24(sp)
    19ec:	8a2e                	mv	s4,a1
    19ee:	4581                	li	a1,0
    19f0:	3511                	jal	17f4 <crc16>
    19f2:	85aa                	mv	a1,a0
    19f4:	01a11503          	lh	a0,26(sp)
    19f8:	3bf5                	jal	17f4 <crc16>
    19fa:	85aa                	mv	a1,a0
    19fc:	01c11503          	lh	a0,28(sp)
    1a00:	3bd5                	jal	17f4 <crc16>
    1a02:	85aa                	mv	a1,a0
    1a04:	03011503          	lh	a0,48(sp)
    1a08:	33f5                	jal	17f4 <crc16>
    1a0a:	67a1                	lui	a5,0x8
    1a0c:	b0578793          	add	a5,a5,-1275 # 7b05 <_bss_end+0x4e61>
    1a10:	892a                	mv	s2,a0
    1a12:	3ef50663          	beq	a0,a5,1dfe <main+0x53a>
    1a16:	14a7ec63          	bltu	a5,a0,1b6e <main+0x2aa>
    1a1a:	6789                	lui	a5,0x2
    1a1c:	8f278793          	add	a5,a5,-1806 # 18f2 <main+0x2e>
    1a20:	3ef50f63          	beq	a0,a5,1e1e <main+0x55a>
    1a24:	6795                	lui	a5,0x5
    1a26:	eaf78793          	add	a5,a5,-337 # 4eaf <_bss_end+0x220b>
    1a2a:	40f51263          	bne	a0,a5,1e2e <main+0x56a>
    1a2e:	00000517          	auipc	a0,0x0
    1a32:	58a50513          	add	a0,a0,1418 # 1fb8 <errpat+0xc8>
    1a36:	925fe0ef          	jal	35a <printf>
    1a3a:	4789                	li	a5,2
    1a3c:	00001c97          	auipc	s9,0x1
    1a40:	a54c8c93          	add	s9,s9,-1452 # 2490 <default_num_contexts>
    1a44:	000ca703          	lw	a4,0(s9)
    1a48:	14070563          	beqz	a4,1b92 <main+0x2ce>
    1a4c:	0786                	sll	a5,a5,0x1
    1a4e:	00000d17          	auipc	s10,0x0
    1a52:	44ed0d13          	add	s10,s10,1102 # 1e9c <list_known_crc>
    1a56:	4d81                	li	s11,0
    1a58:	4c01                	li	s8,0
    1a5a:	9d3e                	add	s10,s10,a5
    1a5c:	00000b97          	auipc	s7,0x0
    1a60:	5ecb8b93          	add	s7,s7,1516 # 2048 <_min_stack+0x48>
    1a64:	00000b17          	auipc	s6,0x0
    1a68:	614b0b13          	add	s6,s6,1556 # 2078 <_min_stack+0x78>
    1a6c:	00000a97          	auipc	s5,0x0
    1a70:	640a8a93          	add	s5,s5,1600 # 20ac <_min_stack+0xac>
    1a74:	a03d                	j	1aa2 <main+0x1de>
    1a76:	06040793          	add	a5,s0,96
    1a7a:	00278433          	add	s0,a5,sp
    1a7e:	ff845783          	lhu	a5,-8(s0)
    1a82:	0c05                	add	s8,s8,1
    1a84:	000ca703          	lw	a4,0(s9)
    1a88:	97ee                	add	a5,a5,s11
    1a8a:	0c42                	sll	s8,s8,0x10
    1a8c:	01079493          	sll	s1,a5,0x10
    1a90:	01079d93          	sll	s11,a5,0x10
    1a94:	010c5c13          	srl	s8,s8,0x10
    1a98:	80c1                	srl	s1,s1,0x10
    1a9a:	410ddd93          	sra	s11,s11,0x10
    1a9e:	0eec7b63          	bgeu	s8,a4,1b94 <main+0x2d0>
    1aa2:	003c1413          	sll	s0,s8,0x3
    1aa6:	018404b3          	add	s1,s0,s8
    1aaa:	048e                	sll	s1,s1,0x3
    1aac:	06048793          	add	a5,s1,96
    1ab0:	002784b3          	add	s1,a5,sp
    1ab4:	fd84a783          	lw	a5,-40(s1)
    1ab8:	fe049c23          	sh	zero,-8(s1)
    1abc:	0017f713          	and	a4,a5,1
    1ac0:	c315                	beqz	a4,1ae4 <main+0x220>
    1ac2:	ff24d603          	lhu	a2,-14(s1)
    1ac6:	000d5683          	lhu	a3,0(s10)
    1aca:	00d60d63          	beq	a2,a3,1ae4 <main+0x220>
    1ace:	85e2                	mv	a1,s8
    1ad0:	855e                	mv	a0,s7
    1ad2:	889fe0ef          	jal	35a <printf>
    1ad6:	ff84d703          	lhu	a4,-8(s1)
    1ada:	fd84a783          	lw	a5,-40(s1)
    1ade:	0705                	add	a4,a4,1
    1ae0:	fee49c23          	sh	a4,-8(s1)
    1ae4:	0027f713          	and	a4,a5,2
    1ae8:	cb0d                	beqz	a4,1b1a <main+0x256>
    1aea:	018404b3          	add	s1,s0,s8
    1aee:	048e                	sll	s1,s1,0x3
    1af0:	06048713          	add	a4,s1,96
    1af4:	002704b3          	add	s1,a4,sp
    1af8:	ff44d603          	lhu	a2,-12(s1)
    1afc:	00cd5683          	lhu	a3,12(s10)
    1b00:	00d60d63          	beq	a2,a3,1b1a <main+0x256>
    1b04:	85e2                	mv	a1,s8
    1b06:	855a                	mv	a0,s6
    1b08:	853fe0ef          	jal	35a <printf>
    1b0c:	ff84d703          	lhu	a4,-8(s1)
    1b10:	fd84a783          	lw	a5,-40(s1)
    1b14:	0705                	add	a4,a4,1
    1b16:	fee49c23          	sh	a4,-8(s1)
    1b1a:	9462                	add	s0,s0,s8
    1b1c:	8b91                	and	a5,a5,4
    1b1e:	040e                	sll	s0,s0,0x3
    1b20:	dbb9                	beqz	a5,1a76 <main+0x1b2>
    1b22:	06040793          	add	a5,s0,96
    1b26:	00278433          	add	s0,a5,sp
    1b2a:	ff645603          	lhu	a2,-10(s0)
    1b2e:	018d5683          	lhu	a3,24(s10)
    1b32:	02d61263          	bne	a2,a3,1b56 <main+0x292>
    1b36:	ff845783          	lhu	a5,-8(s0)
    1b3a:	b7a1                	j	1a82 <main+0x1be>
    1b3c:	01a11783          	lh	a5,26(sp)
    1b40:	01811603          	lh	a2,24(sp)
    1b44:	55a2                	lw	a1,40(sp)
    1b46:	5542                	lw	a0,48(sp)
    1b48:	07c2                	sll	a5,a5,0x10
    1b4a:	8e5d                	or	a2,a2,a5
    1b4c:	0094                	add	a3,sp,64
    1b4e:	984ff0ef          	jal	cd2 <core_init_matrix>
    1b52:	57e2                	lw	a5,56(sp)
    1b54:	b589                	j	1996 <main+0xd2>
    1b56:	85e2                	mv	a1,s8
    1b58:	8556                	mv	a0,s5
    1b5a:	801fe0ef          	jal	35a <printf>
    1b5e:	ff845783          	lhu	a5,-8(s0)
    1b62:	0785                	add	a5,a5,1
    1b64:	07c2                	sll	a5,a5,0x10
    1b66:	83c1                	srl	a5,a5,0x10
    1b68:	fef41c23          	sh	a5,-8(s0)
    1b6c:	bf19                	j	1a82 <main+0x1be>
    1b6e:	67a5                	lui	a5,0x9
    1b70:	a0278793          	add	a5,a5,-1534 # 8a02 <_stack_len+0xa02>
    1b74:	28f50d63          	beq	a0,a5,1e0e <main+0x54a>
    1b78:	67bd                	lui	a5,0xf
    1b7a:	9f578793          	add	a5,a5,-1547 # e9f5 <_stack_len+0x69f5>
    1b7e:	2af51863          	bne	a0,a5,1e2e <main+0x56a>
    1b82:	00000517          	auipc	a0,0x0
    1b86:	46a50513          	add	a0,a0,1130 # 1fec <errpat+0xfc>
    1b8a:	fd0fe0ef          	jal	35a <printf>
    1b8e:	478d                	li	a5,3
    1b90:	b575                	j	1a3c <main+0x178>
    1b92:	4481                	li	s1,0
    1b94:	3975                	jal	1850 <check_data_types>
    1b96:	55c2                	lw	a1,48(sp)
    1b98:	94aa                	add	s1,s1,a0
    1b9a:	00000517          	auipc	a0,0x0
    1b9e:	54250513          	add	a0,a0,1346 # 20dc <_min_stack+0xdc>
    1ba2:	fb8fe0ef          	jal	35a <printf>
    1ba6:	85ce                	mv	a1,s3
    1ba8:	00000517          	auipc	a0,0x0
    1bac:	54c50513          	add	a0,a0,1356 # 20f4 <_min_stack+0xf4>
    1bb0:	faafe0ef          	jal	35a <printf>
    1bb4:	85d2                	mv	a1,s4
    1bb6:	854e                	mv	a0,s3
    1bb8:	39dd                	jal	18ae <time_in_secs>
    1bba:	85aa                	mv	a1,a0
    1bbc:	00000517          	auipc	a0,0x0
    1bc0:	55050513          	add	a0,a0,1360 # 210c <_min_stack+0x10c>
    1bc4:	f96fe0ef          	jal	35a <printf>
    1bc8:	04c2                	sll	s1,s1,0x10
    1bca:	854e                	mv	a0,s3
    1bcc:	85d2                	mv	a1,s4
    1bce:	80c1                	srl	s1,s1,0x10
    1bd0:	39f9                	jal	18ae <time_in_secs>
    1bd2:	20051063          	bnez	a0,1dd2 <main+0x50e>
    1bd6:	854e                	mv	a0,s3
    1bd8:	85d2                	mv	a1,s4
    1bda:	39d1                	jal	18ae <time_in_secs>
    1bdc:	47a5                	li	a5,9
    1bde:	1ea7f263          	bgeu	a5,a0,1dc2 <main+0x4fe>
    1be2:	000ca783          	lw	a5,0(s9)
    1be6:	55d2                	lw	a1,52(sp)
    1be8:	00000517          	auipc	a0,0x0
    1bec:	59450513          	add	a0,a0,1428 # 217c <_min_stack+0x17c>
    1bf0:	04c2                	sll	s1,s1,0x10
    1bf2:	02f585b3          	mul	a1,a1,a5
    1bf6:	84c1                	sra	s1,s1,0x10
    1bf8:	f62fe0ef          	jal	35a <printf>
    1bfc:	00000597          	auipc	a1,0x0
    1c00:	59858593          	add	a1,a1,1432 # 2194 <_min_stack+0x194>
    1c04:	00000517          	auipc	a0,0x0
    1c08:	59c50513          	add	a0,a0,1436 # 21a0 <_min_stack+0x1a0>
    1c0c:	f4efe0ef          	jal	35a <printf>
    1c10:	00000597          	auipc	a1,0x0
    1c14:	5a858593          	add	a1,a1,1448 # 21b8 <_min_stack+0x1b8>
    1c18:	00000517          	auipc	a0,0x0
    1c1c:	62850513          	add	a0,a0,1576 # 2240 <_min_stack+0x240>
    1c20:	f3afe0ef          	jal	35a <printf>
    1c24:	00000597          	auipc	a1,0x0
    1c28:	63458593          	add	a1,a1,1588 # 2258 <_min_stack+0x258>
    1c2c:	00000517          	auipc	a0,0x0
    1c30:	63450513          	add	a0,a0,1588 # 2260 <_min_stack+0x260>
    1c34:	f26fe0ef          	jal	35a <printf>
    1c38:	85ca                	mv	a1,s2
    1c3a:	00000517          	auipc	a0,0x0
    1c3e:	63e50513          	add	a0,a0,1598 # 2278 <_min_stack+0x278>
    1c42:	f18fe0ef          	jal	35a <printf>
    1c46:	57e2                	lw	a5,56(sp)
    1c48:	0017f713          	and	a4,a5,1
    1c4c:	cf15                	beqz	a4,1c88 <main+0x3c4>
    1c4e:	000ca703          	lw	a4,0(s9)
    1c52:	cb1d                	beqz	a4,1c88 <main+0x3c4>
    1c54:	4401                	li	s0,0
    1c56:	00000917          	auipc	s2,0x0
    1c5a:	63e90913          	add	s2,s2,1598 # 2294 <_min_stack+0x294>
    1c5e:	00341793          	sll	a5,s0,0x3
    1c62:	97a2                	add	a5,a5,s0
    1c64:	078e                	sll	a5,a5,0x3
    1c66:	06078793          	add	a5,a5,96
    1c6a:	978a                	add	a5,a5,sp
    1c6c:	ff27d603          	lhu	a2,-14(a5)
    1c70:	85a2                	mv	a1,s0
    1c72:	854a                	mv	a0,s2
    1c74:	ee6fe0ef          	jal	35a <printf>
    1c78:	0405                	add	s0,s0,1
    1c7a:	000ca783          	lw	a5,0(s9)
    1c7e:	0442                	sll	s0,s0,0x10
    1c80:	8041                	srl	s0,s0,0x10
    1c82:	fcf46ee3          	bltu	s0,a5,1c5e <main+0x39a>
    1c86:	57e2                	lw	a5,56(sp)
    1c88:	0027f713          	and	a4,a5,2
    1c8c:	cf1d                	beqz	a4,1cca <main+0x406>
    1c8e:	000ca703          	lw	a4,0(s9)
    1c92:	16070263          	beqz	a4,1df6 <main+0x532>
    1c96:	4401                	li	s0,0
    1c98:	00000917          	auipc	s2,0x0
    1c9c:	61890913          	add	s2,s2,1560 # 22b0 <_min_stack+0x2b0>
    1ca0:	00341793          	sll	a5,s0,0x3
    1ca4:	97a2                	add	a5,a5,s0
    1ca6:	078e                	sll	a5,a5,0x3
    1ca8:	06078793          	add	a5,a5,96
    1cac:	978a                	add	a5,a5,sp
    1cae:	ff47d603          	lhu	a2,-12(a5)
    1cb2:	85a2                	mv	a1,s0
    1cb4:	854a                	mv	a0,s2
    1cb6:	ea4fe0ef          	jal	35a <printf>
    1cba:	0405                	add	s0,s0,1
    1cbc:	000ca783          	lw	a5,0(s9)
    1cc0:	0442                	sll	s0,s0,0x10
    1cc2:	8041                	srl	s0,s0,0x10
    1cc4:	fcf46ee3          	bltu	s0,a5,1ca0 <main+0x3dc>
    1cc8:	57e2                	lw	a5,56(sp)
    1cca:	8b91                	and	a5,a5,4
    1ccc:	000ca703          	lw	a4,0(s9)
    1cd0:	cb9d                	beqz	a5,1d06 <main+0x442>
    1cd2:	4401                	li	s0,0
    1cd4:	00000917          	auipc	s2,0x0
    1cd8:	5f890913          	add	s2,s2,1528 # 22cc <_min_stack+0x2cc>
    1cdc:	c32d                	beqz	a4,1d3e <main+0x47a>
    1cde:	00341793          	sll	a5,s0,0x3
    1ce2:	97a2                	add	a5,a5,s0
    1ce4:	078e                	sll	a5,a5,0x3
    1ce6:	06078793          	add	a5,a5,96
    1cea:	978a                	add	a5,a5,sp
    1cec:	ff67d603          	lhu	a2,-10(a5)
    1cf0:	85a2                	mv	a1,s0
    1cf2:	854a                	mv	a0,s2
    1cf4:	e66fe0ef          	jal	35a <printf>
    1cf8:	0405                	add	s0,s0,1
    1cfa:	000ca783          	lw	a5,0(s9)
    1cfe:	0442                	sll	s0,s0,0x10
    1d00:	8041                	srl	s0,s0,0x10
    1d02:	fcf46ee3          	bltu	s0,a5,1cde <main+0x41a>
    1d06:	000ca783          	lw	a5,0(s9)
    1d0a:	4401                	li	s0,0
    1d0c:	00000917          	auipc	s2,0x0
    1d10:	5dc90913          	add	s2,s2,1500 # 22e8 <_min_stack+0x2e8>
    1d14:	c78d                	beqz	a5,1d3e <main+0x47a>
    1d16:	00341793          	sll	a5,s0,0x3
    1d1a:	97a2                	add	a5,a5,s0
    1d1c:	078e                	sll	a5,a5,0x3
    1d1e:	06078793          	add	a5,a5,96
    1d22:	978a                	add	a5,a5,sp
    1d24:	ff07d603          	lhu	a2,-16(a5)
    1d28:	85a2                	mv	a1,s0
    1d2a:	854a                	mv	a0,s2
    1d2c:	e2efe0ef          	jal	35a <printf>
    1d30:	0405                	add	s0,s0,1
    1d32:	000ca783          	lw	a5,0(s9)
    1d36:	0442                	sll	s0,s0,0x10
    1d38:	8041                	srl	s0,s0,0x10
    1d3a:	fcf46ee3          	bltu	s0,a5,1d16 <main+0x452>
    1d3e:	c8bd                	beqz	s1,1db4 <main+0x4f0>
    1d40:	06904363          	bgtz	s1,1da6 <main+0x4e2>
    1d44:	00000517          	auipc	a0,0x0
    1d48:	60c50513          	add	a0,a0,1548 # 2350 <_min_stack+0x350>
    1d4c:	e0efe0ef          	jal	35a <printf>
    1d50:	08e8                	add	a0,sp,92
    1d52:	3e85                	jal	18c2 <portable_fini>
    1d54:	40fa                	lw	ra,156(sp)
    1d56:	446a                	lw	s0,152(sp)
    1d58:	44da                	lw	s1,148(sp)
    1d5a:	494a                	lw	s2,144(sp)
    1d5c:	49ba                	lw	s3,140(sp)
    1d5e:	4a2a                	lw	s4,136(sp)
    1d60:	4a9a                	lw	s5,132(sp)
    1d62:	4b0a                	lw	s6,128(sp)
    1d64:	5bf6                	lw	s7,124(sp)
    1d66:	5c66                	lw	s8,120(sp)
    1d68:	5cd6                	lw	s9,116(sp)
    1d6a:	5d46                	lw	s10,112(sp)
    1d6c:	5db6                	lw	s11,108(sp)
    1d6e:	4501                	li	a0,0
    1d70:	610d                	add	sp,sp,160
    1d72:	8082                	ret
    1d74:	02b60733          	mul	a4,a2,a1
    1d78:	0605                	add	a2,a2,1
    1d7a:	0642                	sll	a2,a2,0x10
    1d7c:	8241                	srl	a2,a2,0x10
    1d7e:	971a                	add	a4,a4,t1
    1d80:	c6d8                	sw	a4,12(a3)
    1d82:	b6fd                	j	1970 <main+0xac>
    1d84:	4705                	li	a4,1
    1d86:	bae791e3          	bne	a5,a4,1928 <main+0x64>
    1d8a:	01c11783          	lh	a5,28(sp)
    1d8e:	b8079de3          	bnez	a5,1928 <main+0x64>
    1d92:	341537b7          	lui	a5,0x34153
    1d96:	41578793          	add	a5,a5,1045 # 34153415 <_stack_start+0x34053415>
    1d9a:	cc3e                	sw	a5,24(sp)
    1d9c:	06600793          	li	a5,102
    1da0:	00f11e23          	sh	a5,28(sp)
    1da4:	b651                	j	1928 <main+0x64>
    1da6:	00000517          	auipc	a0,0x0
    1daa:	60e50513          	add	a0,a0,1550 # 23b4 <_min_stack+0x3b4>
    1dae:	dacfe0ef          	jal	35a <printf>
    1db2:	bf79                	j	1d50 <main+0x48c>
    1db4:	00000517          	auipc	a0,0x0
    1db8:	55050513          	add	a0,a0,1360 # 2304 <_min_stack+0x304>
    1dbc:	d9efe0ef          	jal	35a <printf>
    1dc0:	bf41                	j	1d50 <main+0x48c>
    1dc2:	00000517          	auipc	a0,0x0
    1dc6:	37a50513          	add	a0,a0,890 # 213c <_min_stack+0x13c>
    1dca:	d90fe0ef          	jal	35a <printf>
    1dce:	0485                	add	s1,s1,1
    1dd0:	bd09                	j	1be2 <main+0x31e>
    1dd2:	000ca783          	lw	a5,0(s9)
    1dd6:	5452                	lw	s0,52(sp)
    1dd8:	85d2                	mv	a1,s4
    1dda:	854e                	mv	a0,s3
    1ddc:	02f40433          	mul	s0,s0,a5
    1de0:	34f9                	jal	18ae <time_in_secs>
    1de2:	85aa                	mv	a1,a0
    1de4:	00000517          	auipc	a0,0x0
    1de8:	34050513          	add	a0,a0,832 # 2124 <_min_stack+0x124>
    1dec:	02b455b3          	divu	a1,s0,a1
    1df0:	d6afe0ef          	jal	35a <printf>
    1df4:	b3cd                	j	1bd6 <main+0x312>
    1df6:	8b91                	and	a5,a5,4
    1df8:	f00787e3          	beqz	a5,1d06 <main+0x442>
    1dfc:	b789                	j	1d3e <main+0x47a>
    1dfe:	00000517          	auipc	a0,0x0
    1e02:	18e50513          	add	a0,a0,398 # 1f8c <errpat+0x9c>
    1e06:	d54fe0ef          	jal	35a <printf>
    1e0a:	4785                	li	a5,1
    1e0c:	b905                	j	1a3c <main+0x178>
    1e0e:	00000517          	auipc	a0,0x0
    1e12:	14e50513          	add	a0,a0,334 # 1f5c <errpat+0x6c>
    1e16:	d44fe0ef          	jal	35a <printf>
    1e1a:	4781                	li	a5,0
    1e1c:	b105                	j	1a3c <main+0x178>
    1e1e:	00000517          	auipc	a0,0x0
    1e22:	1fe50513          	add	a0,a0,510 # 201c <_min_stack+0x1c>
    1e26:	d34fe0ef          	jal	35a <printf>
    1e2a:	4791                	li	a5,4
    1e2c:	b901                	j	1a3c <main+0x178>
    1e2e:	6441                	lui	s0,0x10
    1e30:	fff40493          	add	s1,s0,-1 # ffff <_stack_len+0x7fff>
    1e34:	00000c97          	auipc	s9,0x0
    1e38:	65cc8c93          	add	s9,s9,1628 # 2490 <default_num_contexts>
    1e3c:	bba1                	j	1b94 <main+0x2d0>

Disassembly of section .rodata:

00001e40 <list_known_crc-0x5c>:
    1e40:	e7c2                	fsw	fa6,204(sp)
    1e42:	ffff                	.2byte	0xffff
    1e44:	e6f6                	fsw	ft9,76(sp)
    1e46:	ffff                	.2byte	0xffff
    1e48:	e62e                	fsw	fa1,12(sp)
    1e4a:	ffff                	.2byte	0xffff
    1e4c:	e626                	fsw	fs1,12(sp)
    1e4e:	ffff                	.2byte	0xffff
    1e50:	e626                	fsw	fs1,12(sp)
    1e52:	ffff                	.2byte	0xffff
    1e54:	e626                	fsw	fs1,12(sp)
    1e56:	ffff                	.2byte	0xffff
    1e58:	e626                	fsw	fs1,12(sp)
    1e5a:	ffff                	.2byte	0xffff
    1e5c:	e626                	fsw	fs1,12(sp)
    1e5e:	ffff                	.2byte	0xffff
    1e60:	e626                	fsw	fs1,12(sp)
    1e62:	ffff                	.2byte	0xffff
    1e64:	e626                	fsw	fs1,12(sp)
    1e66:	ffff                	.2byte	0xffff
    1e68:	e626                	fsw	fs1,12(sp)
    1e6a:	ffff                	.2byte	0xffff
    1e6c:	e626                	fsw	fs1,12(sp)
    1e6e:	ffff                	.2byte	0xffff
    1e70:	e626                	fsw	fs1,12(sp)
    1e72:	ffff                	.2byte	0xffff
    1e74:	e794                	fsw	fa3,8(a5)
    1e76:	ffff                	.2byte	0xffff
    1e78:	e626                	fsw	fs1,12(sp)
    1e7a:	ffff                	.2byte	0xffff
    1e7c:	e626                	fsw	fs1,12(sp)
    1e7e:	ffff                	.2byte	0xffff
    1e80:	e626                	fsw	fs1,12(sp)
    1e82:	ffff                	.2byte	0xffff
    1e84:	e704                	fsw	fs1,8(a4)
    1e86:	ffff                	.2byte	0xffff
    1e88:	e626                	fsw	fs1,12(sp)
    1e8a:	ffff                	.2byte	0xffff
    1e8c:	e62e                	fsw	fa1,12(sp)
    1e8e:	ffff                	.2byte	0xffff
    1e90:	e626                	fsw	fs1,12(sp)
    1e92:	ffff                	.2byte	0xffff
    1e94:	e626                	fsw	fs1,12(sp)
    1e96:	ffff                	.2byte	0xffff
    1e98:	e7b0                	fsw	fa2,72(a5)
    1e9a:	ffff                	.2byte	0xffff

00001e9c <list_known_crc>:
    1e9c:	d4b0                	sw	a2,104(s1)
    1e9e:	3340                	fld	fs0,160(a4)
    1ea0:	6a79                	lui	s4,0x1e
    1ea2:	e714                	fsw	fa3,8(a4)
    1ea4:	e3c1                	bnez	a5,1f24 <errpat+0x34>
	...

00001ea8 <matrix_known_crc>:
    1ea8:	be52                	fsd	fs4,312(sp)
    1eaa:	1199                	add	gp,gp,-26
    1eac:	5608                	lw	a0,40(a2)
    1eae:	07471fd7          	.4byte	0x7471fd7
	...

00001eb4 <state_known_crc>:
    1eb4:	39bf5e47          	fmsub.s	ft8,ft10,fs11,ft7,unknown
    1eb8:	e5a4                	fsw	fs1,72(a1)
    1eba:	8e3a                	mv	t3,a4
    1ebc:	8d84                	.2byte	0x8d84
	...

00001ec0 <intpat>:
    1ec0:	2470                	fld	fa2,200(s0)
    1ec2:	0000                	unimp
    1ec4:	2478                	fld	fa4,200(s0)
    1ec6:	0000                	unimp
    1ec8:	2480                	fld	fs0,8(s1)
    1eca:	0000                	unimp
    1ecc:	2488                	fld	fa0,8(s1)
	...

00001ed0 <floatpat>:
    1ed0:	2440                	fld	fs0,136(s0)
    1ed2:	0000                	unimp
    1ed4:	244c                	fld	fa1,136(s0)
    1ed6:	0000                	unimp
    1ed8:	2458                	fld	fa4,136(s0)
    1eda:	0000                	unimp
    1edc:	2464                	fld	fs1,200(s0)
	...

00001ee0 <scipat>:
    1ee0:	2410                	fld	fa2,8(s0)
    1ee2:	0000                	unimp
    1ee4:	241c                	fld	fa5,8(s0)
    1ee6:	0000                	unimp
    1ee8:	2428                	fld	fa0,72(s0)
    1eea:	0000                	unimp
    1eec:	2434                	fld	fa3,72(s0)
	...

00001ef0 <errpat>:
    1ef0:	23e0                	fld	fs0,192(a5)
    1ef2:	0000                	unimp
    1ef4:	23ec                	fld	fa1,192(a5)
    1ef6:	0000                	unimp
    1ef8:	23f8                	fld	fa4,192(a5)
    1efa:	0000                	unimp
    1efc:	2404                	fld	fs1,8(s0)
    1efe:	0000                	unimp
    1f00:	f7c4                	fsw	fs1,44(a5)
    1f02:	ffff                	.2byte	0xffff
    1f04:	f79c                	fsw	fa5,40(a5)
    1f06:	ffff                	.2byte	0xffff
    1f08:	f7a6                	fsw	fs1,236(sp)
    1f0a:	ffff                	.2byte	0xffff
    1f0c:	f7b0                	fsw	fa2,104(a5)
    1f0e:	ffff                	.2byte	0xffff
    1f10:	f7ba                	fsw	fa4,236(sp)
    1f12:	ffff                	.2byte	0xffff
    1f14:	f792                	fsw	ft4,236(sp)
    1f16:	ffff                	.2byte	0xffff
    1f18:	5845                	li	a6,-15
    1f1a:	54504543          	.4byte	0x54504543
    1f1e:	4f49                	li	t5,18
    1f20:	214e                	fld	ft2,208(sp)
    1f22:	2121                	jal	232a <_min_stack+0x32a>
    1f24:	000a                	c.slli	zero,0x2
    1f26:	0000                	unimp
    1f28:	3d3d                	jal	1d66 <main+0x4a2>
    1f2a:	3d3d                	jal	1d68 <main+0x4a4>
    1f2c:	3d3d                	jal	1d6a <main+0x4a6>
    1f2e:	3d3d                	jal	1d6c <main+0x4a8>
    1f30:	3d3d                	jal	1d6e <main+0x4aa>
    1f32:	3d3d                	jal	1d70 <main+0x4ac>
    1f34:	000a                	c.slli	zero,0x2
    1f36:	0000                	unimp
    1f38:	454d                	li	a0,19
    1f3a:	4350                	lw	a2,4(a4)
    1f3c:	203a                	fld	ft0,392(sp)
    1f3e:	2020                	fld	fs0,64(s0)
    1f40:	7830                	flw	fa2,112(s0)
    1f42:	0000                	unimp
    1f44:	4d0a                	lw	s10,128(sp)
    1f46:	53554143          	fmadd.d	ft2,fa0,fs5,fa0,rmm
    1f4a:	3a45                	jal	18fa <main+0x36>
    1f4c:	3020                	fld	fs0,96(s0)
    1f4e:	0078                	add	a4,sp,12
    1f50:	4d0a                	lw	s10,128(sp)
    1f52:	5654                	lw	a3,44(a2)
    1f54:	4c41                	li	s8,16
    1f56:	203a                	fld	ft0,392(sp)
    1f58:	3020                	fld	fs0,96(s0)
    1f5a:	0078                	add	a4,sp,12
    1f5c:	6b36                	flw	fs6,76(sp)
    1f5e:	7020                	flw	fs0,96(s0)
    1f60:	7265                	lui	tp,0xffff9
    1f62:	6f66                	flw	ft10,88(sp)
    1f64:	6d72                	flw	fs10,28(sp)
    1f66:	6e61                	lui	t3,0x18
    1f68:	72206563          	bltu	zero,sp,2692 <static_memblk+0x1be>
    1f6c:	6e75                	lui	t3,0x1d
    1f6e:	7020                	flw	fs0,96(s0)
    1f70:	7261                	lui	tp,0xffff8
    1f72:	6d61                	lui	s10,0x18
    1f74:	7465                	lui	s0,0xffff9
    1f76:	7265                	lui	tp,0xffff9
    1f78:	6f662073          	csrs	0x6f6,a2
    1f7c:	2072                	fld	ft0,280(sp)
    1f7e:	65726f63          	bltu	tp,s7,25dc <static_memblk+0x108>
    1f82:	616d                	add	sp,sp,240
    1f84:	6b72                	flw	fs6,28(sp)
    1f86:	0a2e                	sll	s4,s4,0xb
    1f88:	0000                	unimp
    1f8a:	0000                	unimp
    1f8c:	6b36                	flw	fs6,76(sp)
    1f8e:	7620                	flw	fs0,104(a2)
    1f90:	6c61                	lui	s8,0x18
    1f92:	6469                	lui	s0,0x1a
    1f94:	7461                	lui	s0,0xffff8
    1f96:	6f69                	lui	t5,0x1a
    1f98:	206e                	fld	ft0,216(sp)
    1f9a:	7572                	flw	fa0,60(sp)
    1f9c:	206e                	fld	ft0,216(sp)
    1f9e:	6170                	flw	fa2,68(a0)
    1fa0:	6172                	flw	ft2,28(sp)
    1fa2:	656d                	lui	a0,0x1b
    1fa4:	6574                	flw	fa3,76(a0)
    1fa6:	7372                	flw	ft6,60(sp)
    1fa8:	6620                	flw	fs0,72(a2)
    1faa:	6320726f          	jal	tp,95dc <_stack_len+0x15dc>
    1fae:	6d65726f          	jal	tp,59684 <_stack_len+0x51684>
    1fb2:	7261                	lui	tp,0xffff8
    1fb4:	000a2e6b          	.4byte	0xa2e6b
    1fb8:	7250                	flw	fa2,36(a2)
    1fba:	6c69666f          	jal	a2,98680 <_stack_len+0x90680>
    1fbe:	2065                	jal	2066 <_min_stack+0x66>
    1fc0:	656e6567          	.4byte	0x656e6567
    1fc4:	6172                	flw	ft2,28(sp)
    1fc6:	6974                	flw	fa3,84(a0)
    1fc8:	72206e6f          	jal	t3,86ea <_stack_len+0x6ea>
    1fcc:	6e75                	lui	t3,0x1d
    1fce:	7020                	flw	fs0,96(s0)
    1fd0:	7261                	lui	tp,0xffff8
    1fd2:	6d61                	lui	s10,0x18
    1fd4:	7465                	lui	s0,0xffff9
    1fd6:	7265                	lui	tp,0xffff9
    1fd8:	6f662073          	csrs	0x6f6,a2
    1fdc:	2072                	fld	ft0,280(sp)
    1fde:	65726f63          	bltu	tp,s7,263c <static_memblk+0x168>
    1fe2:	616d                	add	sp,sp,240
    1fe4:	6b72                	flw	fs6,28(sp)
    1fe6:	0a2e                	sll	s4,s4,0xb
    1fe8:	0000                	unimp
    1fea:	0000                	unimp
    1fec:	4b32                	lw	s6,12(sp)
    1fee:	7020                	flw	fs0,96(s0)
    1ff0:	7265                	lui	tp,0xffff9
    1ff2:	6f66                	flw	ft10,88(sp)
    1ff4:	6d72                	flw	fs10,28(sp)
    1ff6:	6e61                	lui	t3,0x18
    1ff8:	72206563          	bltu	zero,sp,2722 <static_memblk+0x24e>
    1ffc:	6e75                	lui	t3,0x1d
    1ffe:	7020                	flw	fs0,96(s0)
    2000:	7261                	lui	tp,0xffff8
    2002:	6d61                	lui	s10,0x18
    2004:	7465                	lui	s0,0xffff9
    2006:	7265                	lui	tp,0xffff9
    2008:	6f662073          	csrs	0x6f6,a2
    200c:	2072                	fld	ft0,280(sp)
    200e:	65726f63          	bltu	tp,s7,266c <static_memblk+0x198>
    2012:	616d                	add	sp,sp,240
    2014:	6b72                	flw	fs6,28(sp)
    2016:	0a2e                	sll	s4,s4,0xb
    2018:	0000                	unimp
    201a:	0000                	unimp
    201c:	4b32                	lw	s6,12(sp)
    201e:	7620                	flw	fs0,104(a2)
    2020:	6c61                	lui	s8,0x18
    2022:	6469                	lui	s0,0x1a
    2024:	7461                	lui	s0,0xffff8
    2026:	6f69                	lui	t5,0x1a
    2028:	206e                	fld	ft0,216(sp)
    202a:	7572                	flw	fa0,60(sp)
    202c:	206e                	fld	ft0,216(sp)
    202e:	6170                	flw	fa2,68(a0)
    2030:	6172                	flw	ft2,28(sp)
    2032:	656d                	lui	a0,0x1b
    2034:	6574                	flw	fa3,76(a0)
    2036:	7372                	flw	ft6,60(sp)
    2038:	6620                	flw	fs0,72(a2)
    203a:	6320726f          	jal	tp,966c <_stack_len+0x166c>
    203e:	6d65726f          	jal	tp,59714 <_stack_len+0x51714>
    2042:	7261                	lui	tp,0xffff8
    2044:	000a2e6b          	.4byte	0xa2e6b
    2048:	5d75255b          	.4byte	0x5d75255b
    204c:	5245                	li	tp,-15
    204e:	4f52                	lw	t5,20(sp)
    2050:	2152                	fld	ft2,272(sp)
    2052:	6c20                	flw	fs0,88(s0)
    2054:	7369                	lui	t1,0xffffa
    2056:	2074                	fld	fa3,192(s0)
    2058:	20637263          	bgeu	t1,t1,225c <_min_stack+0x25c>
    205c:	7830                	flw	fa2,112(s0)
    205e:	3025                	jal	1886 <stop_time+0x18>
    2060:	7834                	flw	fa3,112(s0)
    2062:	2d20                	fld	fs0,88(a0)
    2064:	7320                	flw	fs0,96(a4)
    2066:	6f68                	flw	fa0,92(a4)
    2068:	6c75                	lui	s8,0x1d
    206a:	2064                	fld	fs1,192(s0)
    206c:	6562                	flw	fa0,24(sp)
    206e:	3020                	fld	fs0,96(s0)
    2070:	2578                	fld	fa4,200(a0)
    2072:	3430                	fld	fa2,104(s0)
    2074:	0a78                	add	a4,sp,284
    2076:	0000                	unimp
    2078:	5d75255b          	.4byte	0x5d75255b
    207c:	5245                	li	tp,-15
    207e:	4f52                	lw	t5,20(sp)
    2080:	2152                	fld	ft2,272(sp)
    2082:	6d20                	flw	fs0,88(a0)
    2084:	7461                	lui	s0,0xffff8
    2086:	6972                	flw	fs2,28(sp)
    2088:	2078                	fld	fa4,192(s0)
    208a:	20637263          	bgeu	t1,t1,228e <_min_stack+0x28e>
    208e:	7830                	flw	fa2,112(s0)
    2090:	3025                	jal	18b8 <time_in_secs+0xa>
    2092:	7834                	flw	fa3,112(s0)
    2094:	2d20                	fld	fs0,88(a0)
    2096:	7320                	flw	fs0,96(a4)
    2098:	6f68                	flw	fa0,92(a4)
    209a:	6c75                	lui	s8,0x1d
    209c:	2064                	fld	fs1,192(s0)
    209e:	6562                	flw	fa0,24(sp)
    20a0:	3020                	fld	fs0,96(s0)
    20a2:	2578                	fld	fa4,200(a0)
    20a4:	3430                	fld	fa2,104(s0)
    20a6:	0a78                	add	a4,sp,284
    20a8:	0000                	unimp
    20aa:	0000                	unimp
    20ac:	5d75255b          	.4byte	0x5d75255b
    20b0:	5245                	li	tp,-15
    20b2:	4f52                	lw	t5,20(sp)
    20b4:	2152                	fld	ft2,272(sp)
    20b6:	7320                	flw	fs0,96(a4)
    20b8:	6174                	flw	fa3,68(a0)
    20ba:	6574                	flw	fa3,76(a0)
    20bc:	6320                	flw	fs0,64(a4)
    20be:	6372                	flw	ft6,28(sp)
    20c0:	3020                	fld	fs0,96(s0)
    20c2:	2578                	fld	fa4,200(a0)
    20c4:	3430                	fld	fa2,104(s0)
    20c6:	2078                	fld	fa4,192(s0)
    20c8:	202d                	jal	20f2 <_min_stack+0xf2>
    20ca:	756f6873          	csrrs	a6,0x756,30
    20ce:	646c                	flw	fa1,76(s0)
    20d0:	6220                	flw	fs0,64(a2)
    20d2:	2065                	jal	217a <_min_stack+0x17a>
    20d4:	7830                	flw	fa2,112(s0)
    20d6:	3025                	jal	18fe <main+0x3a>
    20d8:	7834                	flw	fa3,112(s0)
    20da:	000a                	c.slli	zero,0x2
    20dc:	65726f43          	.4byte	0x65726f43
    20e0:	614d                	add	sp,sp,176
    20e2:	6b72                	flw	fs6,28(sp)
    20e4:	5320                	lw	s0,96(a4)
    20e6:	7a69                	lui	s4,0xffffa
    20e8:	2065                	jal	2190 <_min_stack+0x190>
    20ea:	2020                	fld	fs0,64(s0)
    20ec:	3a20                	fld	fs0,112(a2)
    20ee:	2520                	fld	fs0,72(a0)
    20f0:	756c                	flw	fa1,108(a0)
    20f2:	000a                	c.slli	zero,0x2
    20f4:	6f54                	flw	fa3,28(a4)
    20f6:	6174                	flw	fa3,68(a0)
    20f8:	206c                	fld	fa1,192(s0)
    20fa:	6974                	flw	fa3,84(a0)
    20fc:	20736b63          	bltu	t1,t2,2312 <_min_stack+0x312>
    2100:	2020                	fld	fs0,64(s0)
    2102:	2020                	fld	fs0,64(s0)
    2104:	3a20                	fld	fs0,112(a2)
    2106:	2520                	fld	fs0,72(a0)
    2108:	756c                	flw	fa1,108(a0)
    210a:	000a                	c.slli	zero,0x2
    210c:	6f54                	flw	fa3,28(a4)
    210e:	6174                	flw	fa3,68(a0)
    2110:	206c                	fld	fa1,192(s0)
    2112:	6974                	flw	fa3,84(a0)
    2114:	656d                	lui	a0,0x1b
    2116:	2820                	fld	fs0,80(s0)
    2118:	73636573          	csrrs	a0,mhpmevent22h,6
    211c:	3a29                	jal	1a36 <main+0x172>
    211e:	2520                	fld	fs0,72(a0)
    2120:	0a64                	add	s1,sp,284
    2122:	0000                	unimp
    2124:	7449                	lui	s0,0xffff2
    2126:	7265                	lui	tp,0xffff9
    2128:	7461                	lui	s0,0xffff8
    212a:	6f69                	lui	t5,0x1a
    212c:	736e                	flw	ft6,248(sp)
    212e:	6365532f          	.4byte	0x6365532f
    2132:	2020                	fld	fs0,64(s0)
    2134:	3a20                	fld	fs0,112(a2)
    2136:	2520                	fld	fs0,72(a0)
    2138:	0a64                	add	s1,sp,284
    213a:	0000                	unimp
    213c:	5245                	li	tp,-15
    213e:	4f52                	lw	t5,20(sp)
    2140:	2152                	fld	ft2,272(sp)
    2142:	4d20                	lw	s0,88(a0)
    2144:	7375                	lui	t1,0xffffd
    2146:	2074                	fld	fa3,192(s0)
    2148:	7865                	lui	a6,0xffff9
    214a:	6365                	lui	t1,0x19
    214c:	7475                	lui	s0,0xffffd
    214e:	2065                	jal	21f6 <_min_stack+0x1f6>
    2150:	6f66                	flw	ft10,88(sp)
    2152:	2072                	fld	ft0,280(sp)
    2154:	7461                	lui	s0,0xffff8
    2156:	6c20                	flw	fs0,88(s0)
    2158:	6165                	add	sp,sp,112
    215a:	31207473          	csrrc	s0,0x312,0
    215e:	2030                	fld	fa2,64(s0)
    2160:	73636573          	csrrs	a0,mhpmevent22h,6
    2164:	6620                	flw	fs0,72(a2)
    2166:	6120726f          	jal	tp,9778 <_stack_len+0x1778>
    216a:	7620                	flw	fs0,104(a2)
    216c:	6c61                	lui	s8,0x18
    216e:	6469                	lui	s0,0x1a
    2170:	7220                	flw	fs0,96(a2)
    2172:	7365                	lui	t1,0xffff9
    2174:	6c75                	lui	s8,0x1d
    2176:	2174                	fld	fa3,192(a0)
    2178:	000a                	c.slli	zero,0x2
    217a:	0000                	unimp
    217c:	7449                	lui	s0,0xffff2
    217e:	7265                	lui	tp,0xffff9
    2180:	7461                	lui	s0,0xffff8
    2182:	6f69                	lui	t5,0x1a
    2184:	736e                	flw	ft6,248(sp)
    2186:	2020                	fld	fs0,64(s0)
    2188:	2020                	fld	fs0,64(s0)
    218a:	2020                	fld	fs0,64(s0)
    218c:	3a20                	fld	fs0,112(a2)
    218e:	2520                	fld	fs0,72(a0)
    2190:	756c                	flw	fa1,108(a0)
    2192:	000a                	c.slli	zero,0x2
    2194:	31434347          	fmsub.s	ft6,ft6,fs4,ft6,rmm
    2198:	2e32                	fld	ft8,264(sp)
    219a:	2e32                	fld	ft8,264(sp)
    219c:	0030                	add	a2,sp,8
    219e:	0000                	unimp
    21a0:	706d6f43          	fmadd.s	ft10,fs10,ft6,fa4,unknown
    21a4:	6c69                	lui	s8,0x1a
    21a6:	7265                	lui	tp,0xffff9
    21a8:	7620                	flw	fs0,104(a2)
    21aa:	7265                	lui	tp,0xffff9
    21ac:	6e6f6973          	csrrs	s2,0x6e6,30
    21b0:	3a20                	fld	fs0,112(a2)
    21b2:	2520                	fld	fs0,72(a0)
    21b4:	00000a73          	.4byte	0xa73
    21b8:	4f2d                	li	t5,11
    21ba:	2032                	fld	ft0,264(sp)
    21bc:	662d                	lui	a2,0xb
    21be:	6f6e                	flw	ft10,216(sp)
    21c0:	632d                	lui	t1,0xb
    21c2:	6f6d6d6f          	jal	s10,d88b8 <_stack_len+0xd08b8>
    21c6:	206e                	fld	ft0,216(sp)
    21c8:	662d                	lui	a2,0xb
    21ca:	6e75                	lui	t3,0x1d
    21cc:	6f72                	flw	ft10,28(sp)
    21ce:	6c6c                	flw	fa1,92(s0)
    21d0:	6c2d                	lui	s8,0xb
    21d2:	73706f6f          	jal	t5,9108 <_stack_len+0x1108>
    21d6:	2d20                	fld	fs0,88(a0)
    21d8:	6966                	flw	fs2,88(sp)
    21da:	6c6e                	flw	fs8,216(sp)
    21dc:	6e69                	lui	t3,0x1a
    21de:	2d65                	jal	2896 <static_memblk+0x3c2>
    21e0:	7566                	flw	fa0,120(sp)
    21e2:	636e                	flw	ft6,216(sp)
    21e4:	6974                	flw	fa3,84(a0)
    21e6:	20736e6f          	jal	t3,38bec <_stack_len+0x30bec>
    21ea:	2d2d                	jal	2824 <static_memblk+0x350>
    21ec:	6170                	flw	fa2,68(a0)
    21ee:	6172                	flw	ft2,28(sp)
    21f0:	206d                	jal	229a <_min_stack+0x29a>
    21f2:	616d                	add	sp,sp,240
    21f4:	2d78                	fld	fa4,216(a0)
    21f6:	6e69                	lui	t3,0x1a
    21f8:	696c                	flw	fa1,84(a0)
    21fa:	656e                	flw	fa0,216(sp)
    21fc:	692d                	lui	s2,0xb
    21fe:	736e                	flw	ft6,248(sp)
    2200:	736e                	flw	ft6,248(sp)
    2202:	612d                	add	sp,sp,224
    2204:	7475                	lui	s0,0xffffd
    2206:	30323d6f          	jal	s10,25d08 <_stack_len+0x1dd08>
    220a:	2d20                	fld	fs0,88(a0)
    220c:	6166                	flw	ft2,88(sp)
    220e:	696c                	flw	fa1,84(a0)
    2210:	662d6e67          	.4byte	0x662d6e67
    2214:	6e75                	lui	t3,0x1d
    2216:	6f697463          	bgeu	s2,s6,28fe <static_memblk+0x42a>
    221a:	736e                	flw	ft6,248(sp)
    221c:	343d                	jal	1c4a <main+0x386>
    221e:	2d20                	fld	fs0,88(a0)
    2220:	6166                	flw	ft2,88(sp)
    2222:	696c                	flw	fa1,84(a0)
    2224:	6a2d6e67          	.4byte	0x6a2d6e67
    2228:	6d75                	lui	s10,0x1d
    222a:	7370                	flw	fa2,100(a4)
    222c:	343d                	jal	1c5a <main+0x396>
    222e:	2d20                	fld	fs0,88(a0)
    2230:	6166                	flw	ft2,88(sp)
    2232:	696c                	flw	fa1,84(a0)
    2234:	6c2d6e67          	.4byte	0x6c2d6e67
    2238:	73706f6f          	jal	t5,916e <_stack_len+0x116e>
    223c:	343d                	jal	1c6a <main+0x3a6>
    223e:	0000                	unimp
    2240:	706d6f43          	fmadd.s	ft10,fs10,ft6,fa4,unknown
    2244:	6c69                	lui	s8,0x1a
    2246:	7265                	lui	tp,0xffff9
    2248:	6620                	flw	fs0,72(a2)
    224a:	616c                	flw	fa1,68(a0)
    224c:	20207367          	.4byte	0x20207367
    2250:	3a20                	fld	fs0,112(a2)
    2252:	2520                	fld	fs0,72(a0)
    2254:	00000a73          	.4byte	0xa73
    2258:	54415453          	.4byte	0x54415453
    225c:	4349                	li	t1,18
    225e:	0000                	unimp
    2260:	654d                	lui	a0,0x13
    2262:	6f6d                	lui	t5,0x1b
    2264:	7972                	flw	fs2,60(sp)
    2266:	6c20                	flw	fs0,88(s0)
    2268:	7461636f          	jal	t1,189ae <_stack_len+0x109ae>
    226c:	6f69                	lui	t5,0x1a
    226e:	206e                	fld	ft0,216(sp)
    2270:	3a20                	fld	fs0,112(a2)
    2272:	2520                	fld	fs0,72(a0)
    2274:	00000a73          	.4byte	0xa73
    2278:	64656573          	csrrs	a0,hviprio1,10
    227c:	20637263          	bgeu	t1,t1,2480 <_min_stack+0x480>
    2280:	2020                	fld	fs0,64(s0)
    2282:	2020                	fld	fs0,64(s0)
    2284:	2020                	fld	fs0,64(s0)
    2286:	2020                	fld	fs0,64(s0)
    2288:	3a20                	fld	fs0,112(a2)
    228a:	3020                	fld	fs0,96(s0)
    228c:	2578                	fld	fa4,200(a0)
    228e:	3430                	fld	fa2,104(s0)
    2290:	0a78                	add	a4,sp,284
    2292:	0000                	unimp
    2294:	5d64255b          	.4byte	0x5d64255b
    2298:	6c637263          	bgeu	t1,t1,295c <static_memblk+0x488>
    229c:	7369                	lui	t1,0xffffa
    229e:	2074                	fld	fa3,192(s0)
    22a0:	2020                	fld	fs0,64(s0)
    22a2:	2020                	fld	fs0,64(s0)
    22a4:	2020                	fld	fs0,64(s0)
    22a6:	203a                	fld	ft0,392(sp)
    22a8:	7830                	flw	fa2,112(s0)
    22aa:	3025                	jal	1ad2 <main+0x20e>
    22ac:	7834                	flw	fa3,112(s0)
    22ae:	000a                	c.slli	zero,0x2
    22b0:	5d64255b          	.4byte	0x5d64255b
    22b4:	6d637263          	bgeu	t1,s6,2978 <static_memblk+0x4a4>
    22b8:	7461                	lui	s0,0xffff8
    22ba:	6972                	flw	fs2,28(sp)
    22bc:	2078                	fld	fa4,192(s0)
    22be:	2020                	fld	fs0,64(s0)
    22c0:	2020                	fld	fs0,64(s0)
    22c2:	203a                	fld	ft0,392(sp)
    22c4:	7830                	flw	fa2,112(s0)
    22c6:	3025                	jal	1aee <main+0x22a>
    22c8:	7834                	flw	fa3,112(s0)
    22ca:	000a                	c.slli	zero,0x2
    22cc:	5d64255b          	.4byte	0x5d64255b
    22d0:	73637263          	bgeu	t1,s6,29f4 <static_memblk+0x520>
    22d4:	6174                	flw	fa3,68(a0)
    22d6:	6574                	flw	fa3,76(a0)
    22d8:	2020                	fld	fs0,64(s0)
    22da:	2020                	fld	fs0,64(s0)
    22dc:	2020                	fld	fs0,64(s0)
    22de:	203a                	fld	ft0,392(sp)
    22e0:	7830                	flw	fa2,112(s0)
    22e2:	3025                	jal	1b0a <main+0x246>
    22e4:	7834                	flw	fa3,112(s0)
    22e6:	000a                	c.slli	zero,0x2
    22e8:	5d64255b          	.4byte	0x5d64255b
    22ec:	66637263          	bgeu	t1,t1,2950 <static_memblk+0x47c>
    22f0:	6e69                	lui	t3,0x1a
    22f2:	6c61                	lui	s8,0x18
    22f4:	2020                	fld	fs0,64(s0)
    22f6:	2020                	fld	fs0,64(s0)
    22f8:	2020                	fld	fs0,64(s0)
    22fa:	203a                	fld	ft0,392(sp)
    22fc:	7830                	flw	fa2,112(s0)
    22fe:	3025                	jal	1b26 <main+0x262>
    2300:	7834                	flw	fa3,112(s0)
    2302:	000a                	c.slli	zero,0x2
    2304:	72726f43          	fmadd.d	ft10,ft4,ft7,fa4,unknown
    2308:	6365                	lui	t1,0x19
    230a:	2074                	fld	fa3,192(s0)
    230c:	7265706f          	j	59a32 <_stack_len+0x51a32>
    2310:	7461                	lui	s0,0xffff8
    2312:	6f69                	lui	t5,0x1a
    2314:	206e                	fld	ft0,216(sp)
    2316:	6176                	flw	ft2,92(sp)
    2318:	696c                	flw	fa1,84(a0)
    231a:	6164                	flw	fs1,68(a0)
    231c:	6574                	flw	fa3,76(a0)
    231e:	2e64                	fld	fs1,216(a2)
    2320:	5320                	lw	s0,96(a4)
    2322:	6565                	lui	a0,0x19
    2324:	5220                	lw	s0,96(a2)
    2326:	4145                	li	sp,17
    2328:	4d44                	lw	s1,28(a0)
    232a:	2e45                	jal	26da <static_memblk+0x206>
    232c:	646d                	lui	s0,0x1b
    232e:	6620                	flw	fs0,72(a2)
    2330:	7220726f          	jal	tp,9a52 <_stack_len+0x1a52>
    2334:	6e75                	lui	t3,0x1d
    2336:	6120                	flw	fs0,64(a0)
    2338:	646e                	flw	fs0,216(sp)
    233a:	7220                	flw	fs0,96(a2)
    233c:	7065                	c.lui	zero,0xffff9
    233e:	6974726f          	jal	tp,4a1d4 <_stack_len+0x421d4>
    2342:	676e                	flw	fa4,216(sp)
    2344:	7220                	flw	fs0,96(a2)
    2346:	6c75                	lui	s8,0x1d
    2348:	7365                	lui	t1,0xffff9
    234a:	0a2e                	sll	s4,s4,0xb
    234c:	0000                	unimp
    234e:	0000                	unimp
    2350:	6e6e6143          	.4byte	0x6e6e6143
    2354:	7620746f          	jal	s0,9ab6 <_stack_len+0x1ab6>
    2358:	6c61                	lui	s8,0x18
    235a:	6469                	lui	s0,0x1a
    235c:	7461                	lui	s0,0xffff8
    235e:	2065                	jal	2406 <_min_stack+0x406>
    2360:	7265706f          	j	59a86 <_stack_len+0x51a86>
    2364:	7461                	lui	s0,0xffff8
    2366:	6f69                	lui	t5,0x1a
    2368:	206e                	fld	ft0,216(sp)
    236a:	6f66                	flw	ft10,88(sp)
    236c:	2072                	fld	ft0,280(sp)
    236e:	6874                	flw	fa3,84(s0)
    2370:	7365                	lui	t1,0xffff9
    2372:	2065                	jal	241a <_min_stack+0x41a>
    2374:	64656573          	csrrs	a0,hviprio1,10
    2378:	7620                	flw	fs0,104(a2)
    237a:	6c61                	lui	s8,0x18
    237c:	6575                	lui	a0,0x1d
    237e:	70202c73          	csrr	s8,0x702
    2382:	656c                	flw	fa1,76(a0)
    2384:	7361                	lui	t1,0xffff8
    2386:	2065                	jal	242e <_min_stack+0x42e>
    2388:	706d6f63          	bltu	s10,t1,2aa6 <static_memblk+0x5d2>
    238c:	7261                	lui	tp,0xffff8
    238e:	2065                	jal	2436 <_min_stack+0x436>
    2390:	68746977          	.4byte	0x68746977
    2394:	7220                	flw	fs0,96(a2)
    2396:	7365                	lui	t1,0xffff9
    2398:	6c75                	lui	s8,0x1d
    239a:	7374                	flw	fa3,100(a4)
    239c:	6f20                	flw	fs0,88(a4)
    239e:	206e                	fld	ft0,216(sp)
    23a0:	2061                	jal	2428 <_min_stack+0x428>
    23a2:	776f6e6b          	.4byte	0x776f6e6b
    23a6:	206e                	fld	ft0,216(sp)
    23a8:	6c70                	flw	fa2,92(s0)
    23aa:	7461                	lui	s0,0xffff8
    23ac:	6f66                	flw	ft10,88(sp)
    23ae:	6d72                	flw	fs10,28(sp)
    23b0:	0a2e                	sll	s4,s4,0xb
    23b2:	0000                	unimp
    23b4:	7245                	lui	tp,0xffff1
    23b6:	6f72                	flw	ft10,28(sp)
    23b8:	7372                	flw	ft6,60(sp)
    23ba:	6420                	flw	fs0,72(s0)
    23bc:	7465                	lui	s0,0xffff9
    23be:	6365                	lui	t1,0x19
    23c0:	6574                	flw	fa3,76(a0)
    23c2:	0a64                	add	s1,sp,284
    23c4:	0000                	unimp
    23c6:	0000                	unimp
    23c8:	74617453          	.4byte	0x74617453
    23cc:	6369                	lui	t1,0x1a
    23ce:	0000                	unimp
    23d0:	6548                	flw	fa0,12(a0)
    23d2:	7061                	c.lui	zero,0xffff8
    23d4:	0000                	unimp
    23d6:	0000                	unimp
    23d8:	63617453          	.4byte	0x63617453
    23dc:	0000006b          	.4byte	0x6b
    23e0:	3054                	fld	fa3,160(s0)
    23e2:	332e                	fld	ft6,232(sp)
    23e4:	2d65                	jal	2a9c <static_memblk+0x5c8>
    23e6:	4631                	li	a2,12
    23e8:	0000                	unimp
    23ea:	0000                	unimp
    23ec:	542d                	li	s0,-21
    23ee:	542e                	lw	s0,232(sp)
    23f0:	71542b2b          	.4byte	0x71542b2b
    23f4:	0000                	unimp
    23f6:	0000                	unimp
    23f8:	5431                	li	s0,-20
    23fa:	65342e33          	.4byte	0x65342e33
    23fe:	7a34                	flw	fa3,112(a2)
    2400:	0000                	unimp
    2402:	0000                	unimp
    2404:	302e3433          	.4byte	0x302e3433
    2408:	2d65                	jal	2ac0 <static_memblk+0x5ec>
    240a:	5e54                	lw	a3,60(a2)
    240c:	0000                	unimp
    240e:	0000                	unimp
    2410:	2e35                	jal	274c <static_memblk+0x278>
    2412:	3035                	jal	1c3e <main+0x37a>
    2414:	6530                	flw	fa2,72(a0)
    2416:	0000332b          	.4byte	0x332b
    241a:	0000                	unimp
    241c:	2e2d                	jal	2756 <static_memblk+0x282>
    241e:	3231                	jal	1d2a <main+0x466>
    2420:	322d6533          	.4byte	0x322d6533
    2424:	0000                	unimp
    2426:	0000                	unimp
    2428:	382d                	jal	1c62 <main+0x39e>
    242a:	382b6537          	lui	a0,0x382b6
    242e:	00003233          	snez	tp,zero
    2432:	0000                	unimp
    2434:	362e302b          	.4byte	0x362e302b
    2438:	2d65                	jal	2af0 <static_memblk+0x61c>
    243a:	3231                	jal	1d46 <main+0x482>
    243c:	0000                	unimp
    243e:	0000                	unimp
    2440:	352e3533          	.4byte	0x352e3533
    2444:	3434                	fld	fa3,104(s0)
    2446:	3030                	fld	fa2,96(s0)
    2448:	0000                	unimp
    244a:	0000                	unimp
    244c:	312e                	fld	ft2,232(sp)
    244e:	3332                	fld	ft6,296(sp)
    2450:	3534                	fld	fa3,104(a0)
    2452:	3030                	fld	fa2,96(s0)
    2454:	0000                	unimp
    2456:	0000                	unimp
    2458:	312d                	jal	2082 <_min_stack+0x82>
    245a:	3031                	jal	1c66 <main+0x3a2>
    245c:	372e                	fld	fa4,232(sp)
    245e:	3030                	fld	fa2,96(s0)
    2460:	0000                	unimp
    2462:	0000                	unimp
    2464:	362e302b          	.4byte	0x362e302b
    2468:	3434                	fld	fa3,104(s0)
    246a:	3030                	fld	fa2,96(s0)
    246c:	0000                	unimp
    246e:	0000                	unimp
    2470:	3035                	jal	1c9c <main+0x3d8>
    2472:	3231                	jal	1d7e <main+0x4ba>
    2474:	0000                	unimp
    2476:	0000                	unimp
    2478:	3231                	jal	1d84 <main+0x4c0>
    247a:	00003433          	snez	s0,zero
    247e:	0000                	unimp
    2480:	382d                	jal	1cba <main+0x3f6>
    2482:	00003437          	lui	s0,0x3
    2486:	0000                	unimp
    2488:	3232312b          	.4byte	0x3232312b
	...

Disassembly of section .data:

00002490 <default_num_contexts>:
    2490:	0001                	nop
	...

00002494 <seed4_volatile>:
    2494:	03e8                	add	a0,sp,460
	...

00002498 <seed3_volatile>:
    2498:	0066                	c.slli	zero,0x19
	...

0000249c <mem_name>:
    249c:	23c8                	fld	fa0,128(a5)
    249e:	0000                	unimp
    24a0:	23d0                	fld	fa2,128(a5)
    24a2:	0000                	unimp
    24a4:	23d8                	fld	fa4,128(a5)
	...

Disassembly of section .bss:

000024a8 <sgfTimerCallback>:
	...

000024b0 <time_increment>:
	...

000024b8 <t1>:
	...

000024c0 <t0>:
	...

000024c8 <seed5_volatile>:
    24c8:	0000                	unimp
	...

000024cc <seed2_volatile>:
    24cc:	0000                	unimp
	...

000024d0 <seed1_volatile>:
    24d0:	0000                	unimp
	...

000024d4 <static_memblk>:
	...

Disassembly of section .stack:

000f8000 <_stack-0x2000>:
	...

Disassembly of section .riscv.attributes:

00000000 <.riscv.attributes>:
   0:	4141                	li	sp,16
   2:	0000                	unimp
   4:	7200                	flw	fs0,32(a2)
   6:	7369                	lui	t1,0xffffa
   8:	01007663          	bgeu	zero,a6,14 <_vectors_start+0x14>
   c:	00000037          	lui	zero,0x0
  10:	1004                	add	s1,sp,32
  12:	7205                	lui	tp,0xfffe1
  14:	3376                	fld	ft6,376(sp)
  16:	6932                	flw	fs2,12(sp)
  18:	7032                	flw	ft0,44(sp)
  1a:	5f30                	lw	a2,120(a4)
  1c:	326d                	jal	fffff9c6 <_stack_start+0xffeff9c6>
  1e:	3070                	fld	fa2,224(s0)
  20:	615f 7032 5f30      	.byte	0x5f, 0x61, 0x32, 0x70, 0x30, 0x5f
  26:	3266                	fld	ft4,120(sp)
  28:	3070                	fld	fa2,224(s0)
  2a:	645f 7032 5f30      	.byte	0x5f, 0x64, 0x32, 0x70, 0x30, 0x5f
  30:	30703263          	.4byte	0x30703263
  34:	7a5f 6d6d 6c75      	.byte	0x5f, 0x7a, 0x6d, 0x6d, 0x75, 0x6c
  3a:	7031                	c.lui	zero,0xfffec
  3c:	0030                	add	a2,sp,8
  3e:	0108                	add	a0,sp,128
  40:	0b0a                	sll	s6,s6,0x2

Disassembly of section .comment:

00000000 <.comment>:
   0:	3a434347          	fmsub.d	ft6,ft6,ft4,ft7,rmm
   4:	2820                	fld	fs0,80(s0)
   6:	65653267          	.4byte	0x65653267
   a:	6535                	lui	a0,0xd
   c:	3334                	fld	fa3,96(a4)
   e:	3030                	fld	fa2,96(s0)
  10:	3831                	jal	fffff82c <_stack_start+0xffeff82c>
  12:	642d                	lui	s0,0xb
  14:	7269                	lui	tp,0xffffa
  16:	7974                	flw	fa3,116(a0)
  18:	2029                	jal	22 <_vectors_start+0x22>
  1a:	3231                	jal	fffff926 <_stack_start+0xffeff926>
  1c:	322e                	fld	ft4,232(sp)
  1e:	302e                	fld	ft0,232(sp)
	...
